
L1/main:     file format elf64-x86-64


Disassembly of section .init:

0000000000001000 <_init>:
    1000:	f3 0f 1e fa          	endbr64
    1004:	48 83 ec 08          	sub    rsp,0x8
    1008:	48 8b 05 e1 2f 00 00 	mov    rax,QWORD PTR [rip+0x2fe1]        # 3ff0 <__gmon_start__@Base>
    100f:	48 85 c0             	test   rax,rax
    1012:	74 02                	je     1016 <_init+0x16>
    1014:	ff d0                	call   rax
    1016:	48 83 c4 08          	add    rsp,0x8
    101a:	c3                   	ret

Disassembly of section .plt:

0000000000001020 <_ZNSo3putEc@plt-0x10>:
    1020:	ff 35 7a 2f 00 00    	push   QWORD PTR [rip+0x2f7a]        # 3fa0 <_GLOBAL_OFFSET_TABLE_+0x8>
    1026:	ff 25 7c 2f 00 00    	jmp    QWORD PTR [rip+0x2f7c]        # 3fa8 <_GLOBAL_OFFSET_TABLE_+0x10>
    102c:	0f 1f 40 00          	nop    DWORD PTR [rax+0x0]

0000000000001030 <_ZNSo3putEc@plt>:
    1030:	ff 25 7a 2f 00 00    	jmp    QWORD PTR [rip+0x2f7a]        # 3fb0 <_ZNSo3putEc@GLIBCXX_3.4>
    1036:	68 00 00 00 00       	push   0x0
    103b:	e9 e0 ff ff ff       	jmp    1020 <_init+0x20>

0000000000001040 <_ZStlsISt11char_traitsIcEERSt13basic_ostreamIcT_ES5_PKc@plt>:
    1040:	ff 25 72 2f 00 00    	jmp    QWORD PTR [rip+0x2f72]        # 3fb8 <_ZStlsISt11char_traitsIcEERSt13basic_ostreamIcT_ES5_PKc@GLIBCXX_3.4>
    1046:	68 01 00 00 00       	push   0x1
    104b:	e9 d0 ff ff ff       	jmp    1020 <_init+0x20>

0000000000001050 <__stack_chk_fail@plt>:
    1050:	ff 25 6a 2f 00 00    	jmp    QWORD PTR [rip+0x2f6a]        # 3fc0 <__stack_chk_fail@GLIBC_2.4>
    1056:	68 02 00 00 00       	push   0x2
    105b:	e9 c0 ff ff ff       	jmp    1020 <_init+0x20>

0000000000001060 <_ZSt16__ostream_insertIcSt11char_traitsIcEERSt13basic_ostreamIT_T0_ES6_PKS3_l@plt>:
    1060:	ff 25 62 2f 00 00    	jmp    QWORD PTR [rip+0x2f62]        # 3fc8 <_ZSt16__ostream_insertIcSt11char_traitsIcEERSt13basic_ostreamIT_T0_ES6_PKS3_l@GLIBCXX_3.4.9>
    1066:	68 03 00 00 00       	push   0x3
    106b:	e9 b0 ff ff ff       	jmp    1020 <_init+0x20>

0000000000001070 <_ZNSolsEi@plt>:
    1070:	ff 25 5a 2f 00 00    	jmp    QWORD PTR [rip+0x2f5a]        # 3fd0 <_ZNSolsEi@GLIBCXX_3.4>
    1076:	68 04 00 00 00       	push   0x4
    107b:	e9 a0 ff ff ff       	jmp    1020 <_init+0x20>

Disassembly of section .plt.got:

0000000000001080 <__cxa_finalize@plt>:
    1080:	ff 25 52 2f 00 00    	jmp    QWORD PTR [rip+0x2f52]        # 3fd8 <__cxa_finalize@GLIBC_2.2.5>
    1086:	66 90                	xchg   ax,ax

Disassembly of section .text:

0000000000001090 <main>:
    1090:	f3 0f 1e fa          	endbr64
    1094:	41 57                	push   r15
    1096:	48 8d 35 67 0f 00 00 	lea    rsi,[rip+0xf67]        # 2004 <_IO_stdin_used+0x4>
    109d:	41 56                	push   r14
    109f:	4c 8d 35 72 0f 00 00 	lea    r14,[rip+0xf72]        # 2018 <_IO_stdin_used+0x18>
    10a6:	41 55                	push   r13
    10a8:	4c 8d 2d 6c 0f 00 00 	lea    r13,[rip+0xf6c]        # 201b <_IO_stdin_used+0x1b>
    10af:	41 54                	push   r12
    10b1:	55                   	push   rbp
    10b2:	48 8d 2d 87 2f 00 00 	lea    rbp,[rip+0x2f87]        # 4040 <_ZSt4cout@GLIBCXX_3.4>
    10b9:	53                   	push   rbx
    10ba:	48 89 ef             	mov    rdi,rbp
    10bd:	31 db                	xor    ebx,ebx
    10bf:	48 83 ec 58          	sub    rsp,0x58
    10c3:	66 0f 6f 05 65 0f 00 	movdqa xmm0,XMMWORD PTR [rip+0xf65]        # 2030 <_IO_stdin_used+0x30>
    10ca:	00 
    10cb:	64 48 8b 04 25 28 00 	mov    rax,QWORD PTR fs:0x28
    10d2:	00 00 
    10d4:	48 89 44 24 48       	mov    QWORD PTR [rsp+0x48],rax
    10d9:	31 c0                	xor    eax,eax
    10db:	48 8b 05 6e 0f 00 00 	mov    rax,QWORD PTR [rip+0xf6e]        # 2050 <_IO_stdin_used+0x50>
    10e2:	4c 8d 64 24 20       	lea    r12,[rsp+0x20]
    10e7:	0f 29 44 24 20       	movaps XMMWORD PTR [rsp+0x20],xmm0
    10ec:	66 0f 6f 05 4c 0f 00 	movdqa xmm0,XMMWORD PTR [rip+0xf4c]        # 2040 <_IO_stdin_used+0x40>
    10f3:	00 
    10f4:	48 89 44 24 40       	mov    QWORD PTR [rsp+0x40],rax
    10f9:	0f 29 44 24 30       	movaps XMMWORD PTR [rsp+0x30],xmm0
    10fe:	e8 3d ff ff ff       	call   1040 <_ZStlsISt11char_traitsIcEERSt13basic_ostreamIcT_ES5_PKc@plt>
    1103:	be 0a 00 00 00       	mov    esi,0xa
    1108:	48 89 c7             	mov    rdi,rax
    110b:	e8 30 02 00 00       	call   1340 <_ZStlsISt11char_traitsIcEERSt13basic_ostreamIcT_ES5_c.isra.0>
    1110:	48 8d 44 24 1f       	lea    rax,[rsp+0x1f]
    1115:	48 89 44 24 08       	mov    QWORD PTR [rsp+0x8],rax
    111a:	eb 1d                	jmp    1139 <main+0xa9>
    111c:	0f 1f 40 00          	nop    DWORD PTR [rax+0x0]
    1120:	48 8b 74 24 08       	mov    rsi,QWORD PTR [rsp+0x8]
    1125:	ba 01 00 00 00       	mov    edx,0x1
    112a:	48 83 c3 01          	add    rbx,0x1
    112e:	e8 2d ff ff ff       	call   1060 <_ZSt16__ostream_insertIcSt11char_traitsIcEERSt13basic_ostreamIT_T0_ES6_PKS3_l@plt>
    1133:	48 83 fb 0a          	cmp    rbx,0xa
    1137:	74 64                	je     119d <main+0x10d>
    1139:	ba 02 00 00 00       	mov    edx,0x2
    113e:	4c 89 f6             	mov    rsi,r14
    1141:	48 89 ef             	mov    rdi,rbp
    1144:	e8 17 ff ff ff       	call   1060 <_ZSt16__ostream_insertIcSt11char_traitsIcEERSt13basic_ostreamIT_T0_ES6_PKS3_l@plt>
    1149:	89 de                	mov    esi,ebx
    114b:	48 89 ef             	mov    rdi,rbp
    114e:	e8 1d ff ff ff       	call   1070 <_ZNSolsEi@plt>
    1153:	ba 04 00 00 00       	mov    edx,0x4
    1158:	4c 89 ee             	mov    rsi,r13
    115b:	48 89 c7             	mov    rdi,rax
    115e:	49 89 c7             	mov    r15,rax
    1161:	e8 fa fe ff ff       	call   1060 <_ZSt16__ostream_insertIcSt11char_traitsIcEERSt13basic_ostreamIT_T0_ES6_PKS3_l@plt>
    1166:	41 8b 34 9c          	mov    esi,DWORD PTR [r12+rbx*4]
    116a:	4c 89 ff             	mov    rdi,r15
    116d:	e8 fe fe ff ff       	call   1070 <_ZNSolsEi@plt>
    1172:	c6 44 24 1f 0a       	mov    BYTE PTR [rsp+0x1f],0xa
    1177:	48 89 c7             	mov    rdi,rax
    117a:	48 8b 00             	mov    rax,QWORD PTR [rax]
    117d:	48 8b 40 e8          	mov    rax,QWORD PTR [rax-0x18]
    1181:	48 83 7c 07 10 00    	cmp    QWORD PTR [rdi+rax*1+0x10],0x0
    1187:	75 97                	jne    1120 <main+0x90>
    1189:	be 0a 00 00 00       	mov    esi,0xa
    118e:	48 83 c3 01          	add    rbx,0x1
    1192:	e8 99 fe ff ff       	call   1030 <_ZNSo3putEc@plt>
    1197:	48 83 fb 0a          	cmp    rbx,0xa
    119b:	75 9c                	jne    1139 <main+0xa9>
    119d:	be 0a 00 00 00       	mov    esi,0xa
    11a2:	48 89 ef             	mov    rdi,rbp
    11a5:	31 db                	xor    ebx,ebx
    11a7:	e8 94 01 00 00       	call   1340 <_ZStlsISt11char_traitsIcEERSt13basic_ostreamIcT_ES5_c.isra.0>
    11ac:	4c 89 e0             	mov    rax,r12
    11af:	48 8d 54 24 48       	lea    rdx,[rsp+0x48]
    11b4:	0f 1f 40 00          	nop    DWORD PTR [rax+0x0]
    11b8:	48 83 c0 04          	add    rax,0x4
    11bc:	03 58 fc             	add    ebx,DWORD PTR [rax-0x4]
    11bf:	48 39 d0             	cmp    rax,rdx
    11c2:	75 f4                	jne    11b8 <main+0x128>
    11c4:	4c 89 e7             	mov    rdi,r12
    11c7:	be 0a 00 00 00       	mov    esi,0xa
    11cc:	e8 df 01 00 00       	call   13b0 <CalcArraySum_>
    11d1:	48 8d 35 48 0e 00 00 	lea    rsi,[rip+0xe48]        # 2020 <_IO_stdin_used+0x20>
    11d8:	48 89 ef             	mov    rdi,rbp
    11db:	41 89 c4             	mov    r12d,eax
    11de:	e8 5d fe ff ff       	call   1040 <_ZStlsISt11char_traitsIcEERSt13basic_ostreamIcT_ES5_PKc@plt>
    11e3:	89 de                	mov    esi,ebx
    11e5:	48 89 c7             	mov    rdi,rax
    11e8:	e8 83 fe ff ff       	call   1070 <_ZNSolsEi@plt>
    11ed:	be 0a 00 00 00       	mov    esi,0xa
    11f2:	48 89 c7             	mov    rdi,rax
    11f5:	e8 46 01 00 00       	call   1340 <_ZStlsISt11char_traitsIcEERSt13basic_ostreamIcT_ES5_c.isra.0>
    11fa:	48 8d 35 27 0e 00 00 	lea    rsi,[rip+0xe27]        # 2028 <_IO_stdin_used+0x28>
    1201:	48 89 ef             	mov    rdi,rbp
    1204:	e8 37 fe ff ff       	call   1040 <_ZStlsISt11char_traitsIcEERSt13basic_ostreamIcT_ES5_PKc@plt>
    1209:	44 89 e6             	mov    esi,r12d
    120c:	48 89 c7             	mov    rdi,rax
    120f:	e8 5c fe ff ff       	call   1070 <_ZNSolsEi@plt>
    1214:	be 0a 00 00 00       	mov    esi,0xa
    1219:	48 89 c7             	mov    rdi,rax
    121c:	e8 1f 01 00 00       	call   1340 <_ZStlsISt11char_traitsIcEERSt13basic_ostreamIcT_ES5_c.isra.0>
    1221:	48 8b 44 24 48       	mov    rax,QWORD PTR [rsp+0x48]
    1226:	64 48 2b 04 25 28 00 	sub    rax,QWORD PTR fs:0x28
    122d:	00 00 
    122f:	75 11                	jne    1242 <main+0x1b2>
    1231:	48 83 c4 58          	add    rsp,0x58
    1235:	31 c0                	xor    eax,eax
    1237:	5b                   	pop    rbx
    1238:	5d                   	pop    rbp
    1239:	41 5c                	pop    r12
    123b:	41 5d                	pop    r13
    123d:	41 5e                	pop    r14
    123f:	41 5f                	pop    r15
    1241:	c3                   	ret
    1242:	e8 09 fe ff ff       	call   1050 <__stack_chk_fail@plt>
    1247:	66 0f 1f 84 00 00 00 	nop    WORD PTR [rax+rax*1+0x0]
    124e:	00 00 

0000000000001250 <_start>:
    1250:	f3 0f 1e fa          	endbr64
    1254:	31 ed                	xor    ebp,ebp
    1256:	49 89 d1             	mov    r9,rdx
    1259:	5e                   	pop    rsi
    125a:	48 89 e2             	mov    rdx,rsp
    125d:	48 83 e4 f0          	and    rsp,0xfffffffffffffff0
    1261:	50                   	push   rax
    1262:	54                   	push   rsp
    1263:	45 31 c0             	xor    r8d,r8d
    1266:	31 c9                	xor    ecx,ecx
    1268:	48 8d 3d 21 fe ff ff 	lea    rdi,[rip+0xfffffffffffffe21]        # 1090 <main>
    126f:	ff 15 6b 2d 00 00    	call   QWORD PTR [rip+0x2d6b]        # 3fe0 <__libc_start_main@GLIBC_2.34>
    1275:	f4                   	hlt
    1276:	66 2e 0f 1f 84 00 00 	cs nop WORD PTR [rax+rax*1+0x0]
    127d:	00 00 00 

0000000000001280 <deregister_tm_clones>:
    1280:	48 8d 3d 89 2d 00 00 	lea    rdi,[rip+0x2d89]        # 4010 <__TMC_END__>
    1287:	48 8d 05 82 2d 00 00 	lea    rax,[rip+0x2d82]        # 4010 <__TMC_END__>
    128e:	48 39 f8             	cmp    rax,rdi
    1291:	74 15                	je     12a8 <deregister_tm_clones+0x28>
    1293:	48 8b 05 4e 2d 00 00 	mov    rax,QWORD PTR [rip+0x2d4e]        # 3fe8 <_ITM_deregisterTMCloneTable@Base>
    129a:	48 85 c0             	test   rax,rax
    129d:	74 09                	je     12a8 <deregister_tm_clones+0x28>
    129f:	ff e0                	jmp    rax
    12a1:	0f 1f 80 00 00 00 00 	nop    DWORD PTR [rax+0x0]
    12a8:	c3                   	ret
    12a9:	0f 1f 80 00 00 00 00 	nop    DWORD PTR [rax+0x0]

00000000000012b0 <register_tm_clones>:
    12b0:	48 8d 3d 59 2d 00 00 	lea    rdi,[rip+0x2d59]        # 4010 <__TMC_END__>
    12b7:	48 8d 35 52 2d 00 00 	lea    rsi,[rip+0x2d52]        # 4010 <__TMC_END__>
    12be:	48 29 fe             	sub    rsi,rdi
    12c1:	48 89 f0             	mov    rax,rsi
    12c4:	48 c1 ee 3f          	shr    rsi,0x3f
    12c8:	48 c1 f8 03          	sar    rax,0x3
    12cc:	48 01 c6             	add    rsi,rax
    12cf:	48 d1 fe             	sar    rsi,1
    12d2:	74 14                	je     12e8 <register_tm_clones+0x38>
    12d4:	48 8b 05 1d 2d 00 00 	mov    rax,QWORD PTR [rip+0x2d1d]        # 3ff8 <_ITM_registerTMCloneTable@Base>
    12db:	48 85 c0             	test   rax,rax
    12de:	74 08                	je     12e8 <register_tm_clones+0x38>
    12e0:	ff e0                	jmp    rax
    12e2:	66 0f 1f 44 00 00    	nop    WORD PTR [rax+rax*1+0x0]
    12e8:	c3                   	ret
    12e9:	0f 1f 80 00 00 00 00 	nop    DWORD PTR [rax+0x0]

00000000000012f0 <__do_global_dtors_aux>:
    12f0:	f3 0f 1e fa          	endbr64
    12f4:	80 3d 55 2e 00 00 00 	cmp    BYTE PTR [rip+0x2e55],0x0        # 4150 <completed.0>
    12fb:	75 2b                	jne    1328 <__do_global_dtors_aux+0x38>
    12fd:	55                   	push   rbp
    12fe:	48 83 3d d2 2c 00 00 	cmp    QWORD PTR [rip+0x2cd2],0x0        # 3fd8 <__cxa_finalize@GLIBC_2.2.5>
    1305:	00 
    1306:	48 89 e5             	mov    rbp,rsp
    1309:	74 0c                	je     1317 <__do_global_dtors_aux+0x27>
    130b:	48 8b 3d f6 2c 00 00 	mov    rdi,QWORD PTR [rip+0x2cf6]        # 4008 <__dso_handle>
    1312:	e8 69 fd ff ff       	call   1080 <__cxa_finalize@plt>
    1317:	e8 64 ff ff ff       	call   1280 <deregister_tm_clones>
    131c:	c6 05 2d 2e 00 00 01 	mov    BYTE PTR [rip+0x2e2d],0x1        # 4150 <completed.0>
    1323:	5d                   	pop    rbp
    1324:	c3                   	ret
    1325:	0f 1f 00             	nop    DWORD PTR [rax]
    1328:	c3                   	ret
    1329:	0f 1f 80 00 00 00 00 	nop    DWORD PTR [rax+0x0]

0000000000001330 <frame_dummy>:
    1330:	f3 0f 1e fa          	endbr64
    1334:	e9 77 ff ff ff       	jmp    12b0 <register_tm_clones>
    1339:	0f 1f 80 00 00 00 00 	nop    DWORD PTR [rax+0x0]

0000000000001340 <_ZStlsISt11char_traitsIcEERSt13basic_ostreamIcT_ES5_c.isra.0>:
    1340:	48 83 ec 18          	sub    rsp,0x18
    1344:	48 8b 07             	mov    rax,QWORD PTR [rdi]
    1347:	40 88 74 24 0c       	mov    BYTE PTR [rsp+0xc],sil
    134c:	48 8b 40 e8          	mov    rax,QWORD PTR [rax-0x18]
    1350:	48 83 7c 07 10 00    	cmp    QWORD PTR [rdi+rax*1+0x10],0x0
    1356:	74 14                	je     136c <_ZStlsISt11char_traitsIcEERSt13basic_ostreamIcT_ES5_c.isra.0+0x2c>
    1358:	48 8d 74 24 0c       	lea    rsi,[rsp+0xc]
    135d:	ba 01 00 00 00       	mov    edx,0x1
    1362:	e8 f9 fc ff ff       	call   1060 <_ZSt16__ostream_insertIcSt11char_traitsIcEERSt13basic_ostreamIT_T0_ES6_PKS3_l@plt>
    1367:	48 83 c4 18          	add    rsp,0x18
    136b:	c3                   	ret
    136c:	0f be 74 24 0c       	movsx  esi,BYTE PTR [rsp+0xc]
    1371:	e8 ba fc ff ff       	call   1030 <_ZNSo3putEc@plt>
    1376:	eb ef                	jmp    1367 <_ZStlsISt11char_traitsIcEERSt13basic_ostreamIcT_ES5_c.isra.0+0x27>
    1378:	0f 1f 84 00 00 00 00 	nop    DWORD PTR [rax+rax*1+0x0]
    137f:	00 

0000000000001380 <_Z15CalcArraySumCppPKii>:
    1380:	f3 0f 1e fa          	endbr64
    1384:	85 f6                	test   esi,esi
    1386:	7e 20                	jle    13a8 <_Z15CalcArraySumCppPKii+0x28>
    1388:	48 63 f6             	movsxd rsi,esi
    138b:	31 c0                	xor    eax,eax
    138d:	48 8d 14 b7          	lea    rdx,[rdi+rsi*4]
    1391:	0f 1f 80 00 00 00 00 	nop    DWORD PTR [rax+0x0]
    1398:	48 83 c7 04          	add    rdi,0x4
    139c:	03 47 fc             	add    eax,DWORD PTR [rdi-0x4]
    139f:	48 39 fa             	cmp    rdx,rdi
    13a2:	75 f4                	jne    1398 <_Z15CalcArraySumCppPKii+0x18>
    13a4:	c3                   	ret
    13a5:	0f 1f 00             	nop    DWORD PTR [rax]
    13a8:	31 c0                	xor    eax,eax
    13aa:	c3                   	ret
    13ab:	0f 1f 44 00 00       	nop    DWORD PTR [rax+rax*1+0x0]

00000000000013b0 <CalcArraySum_>:
    13b0:	31 c0                	xor    eax,eax
    13b2:	83 fe 00             	cmp    esi,0x0
    13b5:	7e 0a                	jle    13c1 <InvalidCount>

00000000000013b7 <CalcArraySum_.LAdd>:
    13b7:	03 07                	add    eax,DWORD PTR [rdi]
    13b9:	48 83 c7 04          	add    rdi,0x4
    13bd:	ff ce                	dec    esi
    13bf:	75 f6                	jne    13b7 <CalcArraySum_.LAdd>

00000000000013c1 <InvalidCount>:
    13c1:	c3                   	ret

Disassembly of section .fini:

00000000000013c4 <_fini>:
    13c4:	f3 0f 1e fa          	endbr64
    13c8:	48 83 ec 08          	sub    rsp,0x8
    13cc:	48 83 c4 08          	add    rsp,0x8
    13d0:	c3                   	ret
