
L4/main:     file format elf64-x86-64


Disassembly of section .init:

0000000000001000 <_init>:
    1000:	f3 0f 1e fa          	endbr64
    1004:	48 83 ec 08          	sub    rsp,0x8
    1008:	48 8b 05 e1 2f 00 00 	mov    rax,QWORD PTR [rip+0x2fe1]        # 3ff0 <__gmon_start__@Base>
    100f:	48 85 c0             	test   rax,rax
    1012:	74 02                	je     1016 <_init+0x16>
    1014:	ff d0                	call   rax
    1016:	48 83 c4 08          	add    rsp,0x8
    101a:	c3                   	ret

Disassembly of section .plt:

0000000000001020 <_ZNSo3putEc@plt-0x10>:
    1020:	ff 35 62 2f 00 00    	push   QWORD PTR [rip+0x2f62]        # 3f88 <_GLOBAL_OFFSET_TABLE_+0x8>
    1026:	ff 25 64 2f 00 00    	jmp    QWORD PTR [rip+0x2f64]        # 3f90 <_GLOBAL_OFFSET_TABLE_+0x10>
    102c:	0f 1f 40 00          	nop    DWORD PTR [rax+0x0]

0000000000001030 <_ZNSo3putEc@plt>:
    1030:	ff 25 62 2f 00 00    	jmp    QWORD PTR [rip+0x2f62]        # 3f98 <_ZNSo3putEc@GLIBCXX_3.4>
    1036:	68 00 00 00 00       	push   0x0
    103b:	e9 e0 ff ff ff       	jmp    1020 <_init+0x20>

0000000000001040 <strlen@plt>:
    1040:	ff 25 5a 2f 00 00    	jmp    QWORD PTR [rip+0x2f5a]        # 3fa0 <strlen@GLIBC_2.2.5>
    1046:	68 01 00 00 00       	push   0x1
    104b:	e9 d0 ff ff ff       	jmp    1020 <_init+0x20>

0000000000001050 <memset@plt>:
    1050:	ff 25 52 2f 00 00    	jmp    QWORD PTR [rip+0x2f52]        # 3fa8 <memset@GLIBC_2.2.5>
    1056:	68 02 00 00 00       	push   0x2
    105b:	e9 c0 ff ff ff       	jmp    1020 <_init+0x20>

0000000000001060 <_ZStlsISt11char_traitsIcEERSt13basic_ostreamIcT_ES5_PKc@plt>:
    1060:	ff 25 4a 2f 00 00    	jmp    QWORD PTR [rip+0x2f4a]        # 3fb0 <_ZStlsISt11char_traitsIcEERSt13basic_ostreamIcT_ES5_PKc@GLIBCXX_3.4>
    1066:	68 03 00 00 00       	push   0x3
    106b:	e9 b0 ff ff ff       	jmp    1020 <_init+0x20>

0000000000001070 <__stack_chk_fail@plt>:
    1070:	ff 25 42 2f 00 00    	jmp    QWORD PTR [rip+0x2f42]        # 3fb8 <__stack_chk_fail@GLIBC_2.4>
    1076:	68 04 00 00 00       	push   0x4
    107b:	e9 a0 ff ff ff       	jmp    1020 <_init+0x20>

0000000000001080 <_ZSt16__ostream_insertIcSt11char_traitsIcEERSt13basic_ostreamIT_T0_ES6_PKS3_l@plt>:
    1080:	ff 25 3a 2f 00 00    	jmp    QWORD PTR [rip+0x2f3a]        # 3fc0 <_ZSt16__ostream_insertIcSt11char_traitsIcEERSt13basic_ostreamIT_T0_ES6_PKS3_l@GLIBCXX_3.4.9>
    1086:	68 05 00 00 00       	push   0x5
    108b:	e9 90 ff ff ff       	jmp    1020 <_init+0x20>

0000000000001090 <_ZNSt9basic_iosIcSt11char_traitsIcEE5clearESt12_Ios_Iostate@plt>:
    1090:	ff 25 32 2f 00 00    	jmp    QWORD PTR [rip+0x2f32]        # 3fc8 <_ZNSt9basic_iosIcSt11char_traitsIcEE5clearESt12_Ios_Iostate@GLIBCXX_3.4>
    1096:	68 06 00 00 00       	push   0x6
    109b:	e9 80 ff ff ff       	jmp    1020 <_init+0x20>

00000000000010a0 <_ZNSolsEi@plt>:
    10a0:	ff 25 2a 2f 00 00    	jmp    QWORD PTR [rip+0x2f2a]        # 3fd0 <_ZNSolsEi@GLIBCXX_3.4>
    10a6:	68 07 00 00 00       	push   0x7
    10ab:	e9 70 ff ff ff       	jmp    1020 <_init+0x20>

Disassembly of section .plt.got:

00000000000010b0 <__cxa_finalize@plt>:
    10b0:	ff 25 22 2f 00 00    	jmp    QWORD PTR [rip+0x2f22]        # 3fd8 <__cxa_finalize@GLIBC_2.2.5>
    10b6:	66 90                	xchg   ax,ax

Disassembly of section .text:

00000000000010c0 <main>:
    10c0:	f3 0f 1e fa          	endbr64
    10c4:	41 57                	push   r15
    10c6:	ba 05 00 00 00       	mov    edx,0x5
    10cb:	be 07 00 00 00       	mov    esi,0x7
    10d0:	41 56                	push   r14
    10d2:	41 55                	push   r13
    10d4:	41 54                	push   r12
    10d6:	55                   	push   rbp
    10d7:	53                   	push   rbx
    10d8:	48 81 ec 38 01 00 00 	sub    rsp,0x138
    10df:	64 48 8b 04 25 28 00 	mov    rax,QWORD PTR fs:0x28
    10e6:	00 00 
    10e8:	48 89 84 24 28 01 00 	mov    QWORD PTR [rsp+0x128],rax
    10ef:	00 
    10f0:	31 c0                	xor    eax,eax
    10f2:	4c 8d 7c 24 50       	lea    r15,[rsp+0x50]
    10f7:	4c 8d 74 24 30       	lea    r14,[rsp+0x30]
    10fc:	48 8d 9c 24 90 00 00 	lea    rbx,[rsp+0x90]
    1103:	00 
    1104:	4c 8d 6c 24 70       	lea    r13,[rsp+0x70]
    1109:	48 89 df             	mov    rdi,rbx
    110c:	e8 0f 04 00 00       	call   1520 <_Z4InitPiii>
    1111:	4c 8d 54 24 10       	lea    r10,[rsp+0x10]
    1116:	48 89 da             	mov    rdx,rbx
    1119:	4c 89 ff             	mov    rdi,r15
    111c:	4c 89 d6             	mov    rsi,r10
    111f:	41 b8 05 00 00 00    	mov    r8d,0x5
    1125:	b9 07 00 00 00       	mov    ecx,0x7
    112a:	4c 89 54 24 08       	mov    QWORD PTR [rsp+0x8],r10
    112f:	e8 bc 01 00 00       	call   12f0 <_Z23CalcMatrixRowColSumsCppPiS_PKiii.part.0>
    1134:	b9 07 00 00 00       	mov    ecx,0x7
    1139:	48 89 da             	mov    rdx,rbx
    113c:	4c 89 f6             	mov    rsi,r14
    113f:	41 89 c4             	mov    r12d,eax
    1142:	41 b8 05 00 00 00    	mov    r8d,0x5
    1148:	4c 89 ef             	mov    rdi,r13
    114b:	e8 d0 06 00 00       	call   1820 <CalcMatrixRowColSums_>
    1150:	45 85 e4             	test   r12d,r12d
    1153:	4c 8b 54 24 08       	mov    r10,QWORD PTR [rsp+0x8]
    1158:	89 c5                	mov    ebp,eax
    115a:	75 51                	jne    11ad <main+0xed>
    115c:	48 8d 35 26 0f 00 00 	lea    rsi,[rip+0xf26]        # 2089 <_IO_stdin_used+0x89>
    1163:	48 8d 3d d6 2e 00 00 	lea    rdi,[rip+0x2ed6]        # 4040 <_ZSt4cout@GLIBCXX_3.4>
    116a:	e8 f1 fe ff ff       	call   1060 <_ZStlsISt11char_traitsIcEERSt13basic_ostreamIcT_ES5_PKc@plt>
    116f:	85 ed                	test   ebp,ebp
    1171:	75 5d                	jne    11d0 <main+0x110>
    1173:	48 8d 35 2c 0f 00 00 	lea    rsi,[rip+0xf2c]        # 20a6 <_IO_stdin_used+0xa6>
    117a:	48 8d 3d bf 2e 00 00 	lea    rdi,[rip+0x2ebf]        # 4040 <_ZSt4cout@GLIBCXX_3.4>
    1181:	e8 da fe ff ff       	call   1060 <_ZStlsISt11char_traitsIcEERSt13basic_ostreamIcT_ES5_PKc@plt>
    1186:	48 8b 84 24 28 01 00 	mov    rax,QWORD PTR [rsp+0x128]
    118d:	00 
    118e:	64 48 2b 04 25 28 00 	sub    rax,QWORD PTR fs:0x28
    1195:	00 00 
    1197:	75 5a                	jne    11f3 <main+0x133>
    1199:	48 81 c4 38 01 00 00 	add    rsp,0x138
    11a0:	31 c0                	xor    eax,eax
    11a2:	5b                   	pop    rbx
    11a3:	5d                   	pop    rbp
    11a4:	41 5c                	pop    r12
    11a6:	41 5d                	pop    r13
    11a8:	41 5e                	pop    r14
    11aa:	41 5f                	pop    r15
    11ac:	c3                   	ret
    11ad:	41 b9 05 00 00 00    	mov    r9d,0x5
    11b3:	48 89 d9             	mov    rcx,rbx
    11b6:	4c 89 d2             	mov    rdx,r10
    11b9:	4c 89 fe             	mov    rsi,r15
    11bc:	41 b8 07 00 00 00    	mov    r8d,0x7
    11c2:	48 8d 3d 6f 0e 00 00 	lea    rdi,[rip+0xe6f]        # 2038 <_IO_stdin_used+0x38>
    11c9:	e8 e2 03 00 00       	call   15b0 <_Z11PrintResultPKcPKiS2_S2_ii>
    11ce:	eb 9f                	jmp    116f <main+0xaf>
    11d0:	41 b9 05 00 00 00    	mov    r9d,0x5
    11d6:	48 89 d9             	mov    rcx,rbx
    11d9:	4c 89 f2             	mov    rdx,r14
    11dc:	4c 89 ee             	mov    rsi,r13
    11df:	41 b8 07 00 00 00    	mov    r8d,0x7
    11e5:	48 8d 3d 74 0e 00 00 	lea    rdi,[rip+0xe74]        # 2060 <_IO_stdin_used+0x60>
    11ec:	e8 bf 03 00 00       	call   15b0 <_Z11PrintResultPKcPKiS2_S2_ii>
    11f1:	eb 93                	jmp    1186 <main+0xc6>
    11f3:	e8 78 fe ff ff       	call   1070 <__stack_chk_fail@plt>
    11f8:	0f 1f 84 00 00 00 00 	nop    DWORD PTR [rax+rax*1+0x0]
    11ff:	00 

0000000000001200 <_start>:
    1200:	f3 0f 1e fa          	endbr64
    1204:	31 ed                	xor    ebp,ebp
    1206:	49 89 d1             	mov    r9,rdx
    1209:	5e                   	pop    rsi
    120a:	48 89 e2             	mov    rdx,rsp
    120d:	48 83 e4 f0          	and    rsp,0xfffffffffffffff0
    1211:	50                   	push   rax
    1212:	54                   	push   rsp
    1213:	45 31 c0             	xor    r8d,r8d
    1216:	31 c9                	xor    ecx,ecx
    1218:	48 8d 3d a1 fe ff ff 	lea    rdi,[rip+0xfffffffffffffea1]        # 10c0 <main>
    121f:	ff 15 bb 2d 00 00    	call   QWORD PTR [rip+0x2dbb]        # 3fe0 <__libc_start_main@GLIBC_2.34>
    1225:	f4                   	hlt
    1226:	66 2e 0f 1f 84 00 00 	cs nop WORD PTR [rax+rax*1+0x0]
    122d:	00 00 00 

0000000000001230 <deregister_tm_clones>:
    1230:	48 8d 3d d9 2d 00 00 	lea    rdi,[rip+0x2dd9]        # 4010 <__TMC_END__>
    1237:	48 8d 05 d2 2d 00 00 	lea    rax,[rip+0x2dd2]        # 4010 <__TMC_END__>
    123e:	48 39 f8             	cmp    rax,rdi
    1241:	74 15                	je     1258 <deregister_tm_clones+0x28>
    1243:	48 8b 05 9e 2d 00 00 	mov    rax,QWORD PTR [rip+0x2d9e]        # 3fe8 <_ITM_deregisterTMCloneTable@Base>
    124a:	48 85 c0             	test   rax,rax
    124d:	74 09                	je     1258 <deregister_tm_clones+0x28>
    124f:	ff e0                	jmp    rax
    1251:	0f 1f 80 00 00 00 00 	nop    DWORD PTR [rax+0x0]
    1258:	c3                   	ret
    1259:	0f 1f 80 00 00 00 00 	nop    DWORD PTR [rax+0x0]

0000000000001260 <register_tm_clones>:
    1260:	48 8d 3d a9 2d 00 00 	lea    rdi,[rip+0x2da9]        # 4010 <__TMC_END__>
    1267:	48 8d 35 a2 2d 00 00 	lea    rsi,[rip+0x2da2]        # 4010 <__TMC_END__>
    126e:	48 29 fe             	sub    rsi,rdi
    1271:	48 89 f0             	mov    rax,rsi
    1274:	48 c1 ee 3f          	shr    rsi,0x3f
    1278:	48 c1 f8 03          	sar    rax,0x3
    127c:	48 01 c6             	add    rsi,rax
    127f:	48 d1 fe             	sar    rsi,1
    1282:	74 14                	je     1298 <register_tm_clones+0x38>
    1284:	48 8b 05 6d 2d 00 00 	mov    rax,QWORD PTR [rip+0x2d6d]        # 3ff8 <_ITM_registerTMCloneTable@Base>
    128b:	48 85 c0             	test   rax,rax
    128e:	74 08                	je     1298 <register_tm_clones+0x38>
    1290:	ff e0                	jmp    rax
    1292:	66 0f 1f 44 00 00    	nop    WORD PTR [rax+rax*1+0x0]
    1298:	c3                   	ret
    1299:	0f 1f 80 00 00 00 00 	nop    DWORD PTR [rax+0x0]

00000000000012a0 <__do_global_dtors_aux>:
    12a0:	f3 0f 1e fa          	endbr64
    12a4:	80 3d a5 2e 00 00 00 	cmp    BYTE PTR [rip+0x2ea5],0x0        # 4150 <completed.0>
    12ab:	75 2b                	jne    12d8 <__do_global_dtors_aux+0x38>
    12ad:	55                   	push   rbp
    12ae:	48 83 3d 22 2d 00 00 	cmp    QWORD PTR [rip+0x2d22],0x0        # 3fd8 <__cxa_finalize@GLIBC_2.2.5>
    12b5:	00 
    12b6:	48 89 e5             	mov    rbp,rsp
    12b9:	74 0c                	je     12c7 <__do_global_dtors_aux+0x27>
    12bb:	48 8b 3d 46 2d 00 00 	mov    rdi,QWORD PTR [rip+0x2d46]        # 4008 <__dso_handle>
    12c2:	e8 e9 fd ff ff       	call   10b0 <__cxa_finalize@plt>
    12c7:	e8 64 ff ff ff       	call   1230 <deregister_tm_clones>
    12cc:	c6 05 7d 2e 00 00 01 	mov    BYTE PTR [rip+0x2e7d],0x1        # 4150 <completed.0>
    12d3:	5d                   	pop    rbp
    12d4:	c3                   	ret
    12d5:	0f 1f 00             	nop    DWORD PTR [rax]
    12d8:	c3                   	ret
    12d9:	0f 1f 80 00 00 00 00 	nop    DWORD PTR [rax+0x0]

00000000000012e0 <frame_dummy>:
    12e0:	f3 0f 1e fa          	endbr64
    12e4:	e9 77 ff ff ff       	jmp    1260 <register_tm_clones>
    12e9:	0f 1f 80 00 00 00 00 	nop    DWORD PTR [rax+0x0]

00000000000012f0 <_Z23CalcMatrixRowColSumsCppPiS_PKiii.part.0>:
    12f0:	41 55                	push   r13
    12f2:	4c 63 e9             	movsxd r13,ecx
    12f5:	41 54                	push   r12
    12f7:	45 89 c4             	mov    r12d,r8d
    12fa:	55                   	push   rbp
    12fb:	48 89 d5             	mov    rbp,rdx
    12fe:	53                   	push   rbx
    12ff:	48 89 fb             	mov    rbx,rdi
    1302:	48 89 f7             	mov    rdi,rsi
    1305:	48 83 ec 08          	sub    rsp,0x8
    1309:	45 85 c0             	test   r8d,r8d
    130c:	7e 11                	jle    131f <_Z23CalcMatrixRowColSumsCppPiS_PKiii.part.0+0x2f>
    130e:	44 89 c2             	mov    edx,r8d
    1311:	31 f6                	xor    esi,esi
    1313:	48 c1 e2 02          	shl    rdx,0x2
    1317:	e8 34 fd ff ff       	call   1050 <memset@plt>
    131c:	48 89 c7             	mov    rdi,rax
    131f:	45 85 ed             	test   r13d,r13d
    1322:	7e 59                	jle    137d <_Z23CalcMatrixRowColSumsCppPiS_PKiii.part.0+0x8d>
    1324:	4d 63 c4             	movsxd r8,r12d
    1327:	48 89 d9             	mov    rcx,rbx
    132a:	48 89 ee             	mov    rsi,rbp
    132d:	45 89 e1             	mov    r9d,r12d
    1330:	49 c1 e0 02          	shl    r8,0x2
    1334:	4e 8d 14 ab          	lea    r10,[rbx+r13*4]
    1338:	0f 1f 84 00 00 00 00 	nop    DWORD PTR [rax+rax*1+0x0]
    133f:	00 
    1340:	c7 01 00 00 00 00    	mov    DWORD PTR [rcx],0x0
    1346:	45 85 e4             	test   r12d,r12d
    1349:	7e 26                	jle    1371 <_Z23CalcMatrixRowColSumsCppPiS_PKiii.part.0+0x81>
    134b:	8b 06                	mov    eax,DWORD PTR [rsi]
    134d:	89 01                	mov    DWORD PTR [rcx],eax
    134f:	01 07                	add    DWORD PTR [rdi],eax
    1351:	b8 01 00 00 00       	mov    eax,0x1
    1356:	41 83 fc 01          	cmp    r12d,0x1
    135a:	74 15                	je     1371 <_Z23CalcMatrixRowColSumsCppPiS_PKiii.part.0+0x81>
    135c:	0f 1f 40 00          	nop    DWORD PTR [rax+0x0]
    1360:	8b 14 86             	mov    edx,DWORD PTR [rsi+rax*4]
    1363:	01 11                	add    DWORD PTR [rcx],edx
    1365:	01 14 87             	add    DWORD PTR [rdi+rax*4],edx
    1368:	48 83 c0 01          	add    rax,0x1
    136c:	49 39 c1             	cmp    r9,rax
    136f:	75 ef                	jne    1360 <_Z23CalcMatrixRowColSumsCppPiS_PKiii.part.0+0x70>
    1371:	48 83 c1 04          	add    rcx,0x4
    1375:	4c 01 c6             	add    rsi,r8
    1378:	4c 39 d1             	cmp    rcx,r10
    137b:	75 c3                	jne    1340 <_Z23CalcMatrixRowColSumsCppPiS_PKiii.part.0+0x50>
    137d:	48 83 c4 08          	add    rsp,0x8
    1381:	b8 01 00 00 00       	mov    eax,0x1
    1386:	5b                   	pop    rbx
    1387:	5d                   	pop    rbp
    1388:	41 5c                	pop    r12
    138a:	41 5d                	pop    r13
    138c:	c3                   	ret
    138d:	90                   	nop
    138e:	66 90                	xchg   ax,ax

0000000000001390 <_ZNSt24uniform_int_distributionIiEclISt26linear_congruential_engineImLm16807ELm0ELm2147483647EEEEiRT_RKNS0_10param_typeE.isra.0>:
    1390:	41 56                	push   r14
    1392:	48 63 c6             	movsxd rax,esi
    1395:	4c 63 f2             	movsxd r14,edx
    1398:	49 29 c6             	sub    r14,rax
    139b:	41 55                	push   r13
    139d:	49 89 fd             	mov    r13,rdi
    13a0:	41 54                	push   r12
    13a2:	49 89 c4             	mov    r12,rax
    13a5:	55                   	push   rbp
    13a6:	53                   	push   rbx
    13a7:	49 81 fe fc ff ff 7f 	cmp    r14,0x7ffffffc
    13ae:	77 78                	ja     1428 <_ZNSt24uniform_int_distributionIiEclISt26linear_congruential_engineImLm16807ELm0ELm2147483647EEEEiRT_RKNS0_10param_typeE.isra.0+0x98>
    13b0:	49 8d 7e 01          	lea    rdi,[r14+0x1]
    13b4:	b8 fd ff ff 7f       	mov    eax,0x7ffffffd
    13b9:	31 d2                	xor    edx,edx
    13bb:	49 b8 05 00 00 00 02 	movabs r8,0x200000005
    13c2:	00 00 00 
    13c5:	48 f7 f7             	div    rdi
    13c8:	49 8b 55 00          	mov    rdx,QWORD PTR [r13+0x0]
    13cc:	48 0f af f8          	imul   rdi,rax
    13d0:	49 89 c1             	mov    r9,rax
    13d3:	0f 1f 44 00 00       	nop    DWORD PTR [rax+rax*1+0x0]
    13d8:	48 69 f2 a7 41 00 00 	imul   rsi,rdx,0x41a7
    13df:	48 89 f0             	mov    rax,rsi
    13e2:	48 89 f1             	mov    rcx,rsi
    13e5:	49 f7 e0             	mul    r8
    13e8:	48 29 d1             	sub    rcx,rdx
    13eb:	48 d1 e9             	shr    rcx,1
    13ee:	48 01 ca             	add    rdx,rcx
    13f1:	48 c1 ea 1e          	shr    rdx,0x1e
    13f5:	48 89 d1             	mov    rcx,rdx
    13f8:	48 c1 e1 1f          	shl    rcx,0x1f
    13fc:	48 29 d1             	sub    rcx,rdx
    13ff:	48 29 ce             	sub    rsi,rcx
    1402:	48 8d 46 ff          	lea    rax,[rsi-0x1]
    1406:	48 89 f2             	mov    rdx,rsi
    1409:	48 39 f8             	cmp    rax,rdi
    140c:	73 ca                	jae    13d8 <_ZNSt24uniform_int_distributionIiEclISt26linear_congruential_engineImLm16807ELm0ELm2147483647EEEEiRT_RKNS0_10param_typeE.isra.0+0x48>
    140e:	31 d2                	xor    edx,edx
    1410:	49 89 75 00          	mov    QWORD PTR [r13+0x0],rsi
    1414:	5b                   	pop    rbx
    1415:	49 f7 f1             	div    r9
    1418:	5d                   	pop    rbp
    1419:	44 01 e0             	add    eax,r12d
    141c:	41 5c                	pop    r12
    141e:	41 5d                	pop    r13
    1420:	41 5e                	pop    r14
    1422:	c3                   	ret
    1423:	0f 1f 44 00 00       	nop    DWORD PTR [rax+rax*1+0x0]
    1428:	49 81 fe fd ff ff 7f 	cmp    r14,0x7ffffffd
    142f:	0f 84 9b 00 00 00    	je     14d0 <_ZNSt24uniform_int_distributionIiEclISt26linear_congruential_engineImLm16807ELm0ELm2147483647EEEEiRT_RKNS0_10param_typeE.isra.0+0x140>
    1435:	48 b8 09 00 00 00 02 	movabs rax,0x8000000200000009
    143c:	00 00 80 
    143f:	4c 89 f2             	mov    rdx,r14
    1442:	48 bd 05 00 00 00 02 	movabs rbp,0x200000005
    1449:	00 00 00 
    144c:	48 d1 ea             	shr    rdx,1
    144f:	48 f7 e2             	mul    rdx
    1452:	48 c1 ea 1d          	shr    rdx,0x1d
    1456:	89 d3                	mov    ebx,edx
    1458:	31 f6                	xor    esi,esi
    145a:	89 da                	mov    edx,ebx
    145c:	4c 89 ef             	mov    rdi,r13
    145f:	e8 2c ff ff ff       	call   1390 <_ZNSt24uniform_int_distributionIiEclISt26linear_congruential_engineImLm16807ELm0ELm2147483647EEEEiRT_RKNS0_10param_typeE.isra.0>
    1464:	49 69 75 00 a7 41 00 	imul   rsi,QWORD PTR [r13+0x0],0x41a7
    146b:	00 
    146c:	48 63 c8             	movsxd rcx,eax
    146f:	48 89 f0             	mov    rax,rsi
    1472:	48 f7 e5             	mul    rbp
    1475:	48 89 f0             	mov    rax,rsi
    1478:	48 29 d0             	sub    rax,rdx
    147b:	48 d1 e8             	shr    rax,1
    147e:	48 01 c2             	add    rdx,rax
    1481:	48 c1 ea 1e          	shr    rdx,0x1e
    1485:	48 89 d0             	mov    rax,rdx
    1488:	48 c1 e0 1f          	shl    rax,0x1f
    148c:	48 29 d0             	sub    rax,rdx
    148f:	48 29 c6             	sub    rsi,rax
    1492:	48 89 c8             	mov    rax,rcx
    1495:	48 c1 e0 1e          	shl    rax,0x1e
    1499:	48 89 f2             	mov    rdx,rsi
    149c:	49 89 75 00          	mov    QWORD PTR [r13+0x0],rsi
    14a0:	48 29 c8             	sub    rax,rcx
    14a3:	48 83 ea 01          	sub    rdx,0x1
    14a7:	48 01 c0             	add    rax,rax
    14aa:	48 01 d0             	add    rax,rdx
    14ad:	0f 92 c2             	setb   dl
    14b0:	0f b6 d2             	movzx  edx,dl
    14b3:	49 39 c6             	cmp    r14,rax
    14b6:	72 a0                	jb     1458 <_ZNSt24uniform_int_distributionIiEclISt26linear_congruential_engineImLm16807ELm0ELm2147483647EEEEiRT_RKNS0_10param_typeE.isra.0+0xc8>
    14b8:	48 85 d2             	test   rdx,rdx
    14bb:	75 9b                	jne    1458 <_ZNSt24uniform_int_distributionIiEclISt26linear_congruential_engineImLm16807ELm0ELm2147483647EEEEiRT_RKNS0_10param_typeE.isra.0+0xc8>
    14bd:	5b                   	pop    rbx
    14be:	44 01 e0             	add    eax,r12d
    14c1:	5d                   	pop    rbp
    14c2:	41 5c                	pop    r12
    14c4:	41 5d                	pop    r13
    14c6:	41 5e                	pop    r14
    14c8:	c3                   	ret
    14c9:	0f 1f 80 00 00 00 00 	nop    DWORD PTR [rax+0x0]
    14d0:	48 69 0f a7 41 00 00 	imul   rcx,QWORD PTR [rdi],0x41a7
    14d7:	48 b8 05 00 00 00 02 	movabs rax,0x200000005
    14de:	00 00 00 
    14e1:	48 f7 e1             	mul    rcx
    14e4:	48 89 c8             	mov    rax,rcx
    14e7:	48 29 d0             	sub    rax,rdx
    14ea:	48 d1 e8             	shr    rax,1
    14ed:	48 01 d0             	add    rax,rdx
    14f0:	48 c1 e8 1e          	shr    rax,0x1e
    14f4:	48 89 c2             	mov    rdx,rax
    14f7:	48 c1 e2 1f          	shl    rdx,0x1f
    14fb:	48 29 c2             	sub    rdx,rax
    14fe:	48 89 c8             	mov    rax,rcx
    1501:	48 29 d0             	sub    rax,rdx
    1504:	48 89 07             	mov    QWORD PTR [rdi],rax
    1507:	48 83 e8 01          	sub    rax,0x1
    150b:	5b                   	pop    rbx
    150c:	44 01 e0             	add    eax,r12d
    150f:	5d                   	pop    rbp
    1510:	41 5c                	pop    r12
    1512:	41 5d                	pop    r13
    1514:	41 5e                	pop    r14
    1516:	c3                   	ret
    1517:	66 0f 1f 84 00 00 00 	nop    WORD PTR [rax+rax*1+0x0]
    151e:	00 00 

0000000000001520 <_Z4InitPiii>:
    1520:	f3 0f 1e fa          	endbr64
    1524:	0f af f2             	imul   esi,edx
    1527:	85 f6                	test   esi,esi
    1529:	7e 78                	jle    15a3 <_Z4InitPiii+0x83>
    152b:	48 63 f6             	movsxd rsi,esi
    152e:	b9 0d 00 00 00       	mov    ecx,0xd
    1533:	49 b8 05 00 00 00 02 	movabs r8,0x200000005
    153a:	00 00 00 
    153d:	49 b9 21 1c 00 00 4b 	movabs r9,0xc800004b00001c21
    1544:	00 00 c8 
    1547:	4c 8d 14 b7          	lea    r10,[rdi+rsi*4]
    154b:	0f 1f 44 00 00       	nop    DWORD PTR [rax+rax*1+0x0]
    1550:	48 69 f1 a7 41 00 00 	imul   rsi,rcx,0x41a7
    1557:	48 89 f0             	mov    rax,rsi
    155a:	49 f7 e0             	mul    r8
    155d:	48 89 f0             	mov    rax,rsi
    1560:	48 29 d0             	sub    rax,rdx
    1563:	48 d1 e8             	shr    rax,1
    1566:	48 8d 0c 02          	lea    rcx,[rdx+rax*1]
    156a:	48 c1 e9 1e          	shr    rcx,0x1e
    156e:	48 89 c8             	mov    rax,rcx
    1571:	48 c1 e0 1f          	shl    rax,0x1f
    1575:	48 29 c8             	sub    rax,rcx
    1578:	48 29 c6             	sub    rsi,rax
    157b:	48 8d 46 ff          	lea    rax,[rsi-0x1]
    157f:	48 89 f1             	mov    rcx,rsi
    1582:	48 3d cf ff ff 7f    	cmp    rax,0x7fffffcf
    1588:	77 c6                	ja     1550 <_Z4InitPiii+0x30>
    158a:	48 d1 e8             	shr    rax,1
    158d:	48 83 c7 04          	add    rdi,0x4
    1591:	49 f7 e1             	mul    r9
    1594:	48 c1 ea 16          	shr    rdx,0x16
    1598:	83 c2 01             	add    edx,0x1
    159b:	89 57 fc             	mov    DWORD PTR [rdi-0x4],edx
    159e:	49 39 fa             	cmp    r10,rdi
    15a1:	75 ad                	jne    1550 <_Z4InitPiii+0x30>
    15a3:	c3                   	ret
    15a4:	66 66 2e 0f 1f 84 00 	data16 cs nop WORD PTR [rax+rax*1+0x0]
    15ab:	00 00 00 00 
    15af:	90                   	nop

00000000000015b0 <_Z11PrintResultPKcPKiS2_S2_ii>:
    15b0:	f3 0f 1e fa          	endbr64
    15b4:	41 57                	push   r15
    15b6:	41 56                	push   r14
    15b8:	41 55                	push   r13
    15ba:	4d 63 e9             	movsxd r13,r9d
    15bd:	41 54                	push   r12
    15bf:	55                   	push   rbp
    15c0:	48 89 f5             	mov    rbp,rsi
    15c3:	53                   	push   rbx
    15c4:	49 63 d8             	movsxd rbx,r8d
    15c7:	48 83 ec 38          	sub    rsp,0x38
    15cb:	48 89 54 24 18       	mov    QWORD PTR [rsp+0x18],rdx
    15d0:	48 89 4c 24 08       	mov    QWORD PTR [rsp+0x8],rcx
    15d5:	64 48 8b 04 25 28 00 	mov    rax,QWORD PTR fs:0x28
    15dc:	00 00 
    15de:	48 89 44 24 28       	mov    QWORD PTR [rsp+0x28],rax
    15e3:	31 c0                	xor    eax,eax
    15e5:	48 85 ff             	test   rdi,rdi
    15e8:	0f 84 e2 01 00 00    	je     17d0 <_Z11PrintResultPKcPKiS2_S2_ii+0x220>
    15ee:	49 89 fc             	mov    r12,rdi
    15f1:	4c 8d 3d 48 2a 00 00 	lea    r15,[rip+0x2a48]        # 4040 <_ZSt4cout@GLIBCXX_3.4>
    15f8:	e8 43 fa ff ff       	call   1040 <strlen@plt>
    15fd:	4c 89 e6             	mov    rsi,r12
    1600:	4c 89 ff             	mov    rdi,r15
    1603:	48 89 c2             	mov    rdx,rax
    1606:	e8 75 fa ff ff       	call   1080 <_ZSt16__ostream_insertIcSt11char_traitsIcEERSt13basic_ostreamIT_T0_ES6_PKS3_l@plt>
    160b:	ba 2a 00 00 00       	mov    edx,0x2a
    1610:	48 8d 35 f1 09 00 00 	lea    rsi,[rip+0x9f1]        # 2008 <_IO_stdin_used+0x8>
    1617:	4c 89 ff             	mov    rdi,r15
    161a:	e8 61 fa ff ff       	call   1080 <_ZSt16__ostream_insertIcSt11char_traitsIcEERSt13basic_ostreamIT_T0_ES6_PKS3_l@plt>
    161f:	85 db                	test   ebx,ebx
    1621:	0f 8e c7 00 00 00    	jle    16ee <_Z11PrintResultPKcPKiS2_S2_ii+0x13e>
    1627:	48 8d 44 9d 00       	lea    rax,[rbp+rbx*4+0x0]
    162c:	45 31 e4             	xor    r12d,r12d
    162f:	48 89 04 24          	mov    QWORD PTR [rsp],rax
    1633:	49 63 c5             	movsxd rax,r13d
    1636:	48 89 44 24 10       	mov    QWORD PTR [rsp+0x10],rax
    163b:	0f 1f 44 00 00       	nop    DWORD PTR [rax+rax*1+0x0]
    1640:	45 85 ed             	test   r13d,r13d
    1643:	7e 3f                	jle    1684 <_Z11PrintResultPKcPKiS2_S2_ii+0xd4>
    1645:	48 8b 4c 24 08       	mov    rcx,QWORD PTR [rsp+0x8]
    164a:	48 8b 54 24 10       	mov    rdx,QWORD PTR [rsp+0x10]
    164f:	49 63 c4             	movsxd rax,r12d
    1652:	4c 8d 34 81          	lea    r14,[rcx+rax*4]
    1656:	48 01 d0             	add    rax,rdx
    1659:	48 8d 1c 81          	lea    rbx,[rcx+rax*4]
    165d:	0f 1f 00             	nop    DWORD PTR [rax]
    1660:	49 8b 07             	mov    rax,QWORD PTR [r15]
    1663:	41 8b 36             	mov    esi,DWORD PTR [r14]
    1666:	4c 89 ff             	mov    rdi,r15
    1669:	49 83 c6 04          	add    r14,0x4
    166d:	48 8b 40 e8          	mov    rax,QWORD PTR [rax-0x18]
    1671:	49 c7 44 07 10 06 00 	mov    QWORD PTR [r15+rax*1+0x10],0x6
    1678:	00 00 
    167a:	e8 21 fa ff ff       	call   10a0 <_ZNSolsEi@plt>
    167f:	4c 39 f3             	cmp    rbx,r14
    1682:	75 dc                	jne    1660 <_Z11PrintResultPKcPKiS2_S2_ii+0xb0>
    1684:	ba 02 00 00 00       	mov    edx,0x2
    1689:	48 8d 35 f6 09 00 00 	lea    rsi,[rip+0x9f6]        # 2086 <_IO_stdin_used+0x86>
    1690:	4c 89 ff             	mov    rdi,r15
    1693:	e8 e8 f9 ff ff       	call   1080 <_ZSt16__ostream_insertIcSt11char_traitsIcEERSt13basic_ostreamIT_T0_ES6_PKS3_l@plt>
    1698:	49 8b 07             	mov    rax,QWORD PTR [r15]
    169b:	8b 75 00             	mov    esi,DWORD PTR [rbp+0x0]
    169e:	4c 89 ff             	mov    rdi,r15
    16a1:	48 8b 40 e8          	mov    rax,QWORD PTR [rax-0x18]
    16a5:	49 c7 44 07 10 06 00 	mov    QWORD PTR [r15+rax*1+0x10],0x6
    16ac:	00 00 
    16ae:	e8 ed f9 ff ff       	call   10a0 <_ZNSolsEi@plt>
    16b3:	c6 44 24 27 0a       	mov    BYTE PTR [rsp+0x27],0xa
    16b8:	48 89 c7             	mov    rdi,rax
    16bb:	48 8b 00             	mov    rax,QWORD PTR [rax]
    16be:	48 8b 40 e8          	mov    rax,QWORD PTR [rax-0x18]
    16c2:	48 83 7c 07 10 00    	cmp    QWORD PTR [rdi+rax*1+0x10],0x0
    16c8:	0f 84 d2 00 00 00    	je     17a0 <_Z11PrintResultPKcPKiS2_S2_ii+0x1f0>
    16ce:	48 8d 74 24 27       	lea    rsi,[rsp+0x27]
    16d3:	ba 01 00 00 00       	mov    edx,0x1
    16d8:	e8 a3 f9 ff ff       	call   1080 <_ZSt16__ostream_insertIcSt11char_traitsIcEERSt13basic_ostreamIT_T0_ES6_PKS3_l@plt>
    16dd:	48 83 c5 04          	add    rbp,0x4
    16e1:	45 01 ec             	add    r12d,r13d
    16e4:	48 39 2c 24          	cmp    QWORD PTR [rsp],rbp
    16e8:	0f 85 52 ff ff ff    	jne    1640 <_Z11PrintResultPKcPKiS2_S2_ii+0x90>
    16ee:	48 8b 05 4b 29 00 00 	mov    rax,QWORD PTR [rip+0x294b]        # 4040 <_ZSt4cout@GLIBCXX_3.4>
    16f5:	c6 44 24 27 0a       	mov    BYTE PTR [rsp+0x27],0xa
    16fa:	48 8b 40 e8          	mov    rax,QWORD PTR [rax-0x18]
    16fe:	49 83 7c 07 10 00    	cmp    QWORD PTR [r15+rax*1+0x10],0x0
    1704:	0f 84 a5 00 00 00    	je     17af <_Z11PrintResultPKcPKiS2_S2_ii+0x1ff>
    170a:	48 8d 74 24 27       	lea    rsi,[rsp+0x27]
    170f:	ba 01 00 00 00       	mov    edx,0x1
    1714:	4c 89 ff             	mov    rdi,r15
    1717:	e8 64 f9 ff ff       	call   1080 <_ZSt16__ostream_insertIcSt11char_traitsIcEERSt13basic_ostreamIT_T0_ES6_PKS3_l@plt>
    171c:	45 85 ed             	test   r13d,r13d
    171f:	7e 32                	jle    1753 <_Z11PrintResultPKcPKiS2_S2_ii+0x1a3>
    1721:	48 8b 5c 24 18       	mov    rbx,QWORD PTR [rsp+0x18]
    1726:	4a 8d 2c ab          	lea    rbp,[rbx+r13*4]
    172a:	66 0f 1f 44 00 00    	nop    WORD PTR [rax+rax*1+0x0]
    1730:	49 8b 07             	mov    rax,QWORD PTR [r15]
    1733:	8b 33                	mov    esi,DWORD PTR [rbx]
    1735:	4c 89 ff             	mov    rdi,r15
    1738:	48 83 c3 04          	add    rbx,0x4
    173c:	48 8b 40 e8          	mov    rax,QWORD PTR [rax-0x18]
    1740:	49 c7 44 07 10 06 00 	mov    QWORD PTR [r15+rax*1+0x10],0x6
    1747:	00 00 
    1749:	e8 52 f9 ff ff       	call   10a0 <_ZNSolsEi@plt>
    174e:	48 39 dd             	cmp    rbp,rbx
    1751:	75 dd                	jne    1730 <_Z11PrintResultPKcPKiS2_S2_ii+0x180>
    1753:	48 8b 05 e6 28 00 00 	mov    rax,QWORD PTR [rip+0x28e6]        # 4040 <_ZSt4cout@GLIBCXX_3.4>
    175a:	c6 44 24 27 0a       	mov    BYTE PTR [rsp+0x27],0xa
    175f:	48 8b 40 e8          	mov    rax,QWORD PTR [rax-0x18]
    1763:	49 83 7c 07 10 00    	cmp    QWORD PTR [r15+rax*1+0x10],0x0
    1769:	74 56                	je     17c1 <_Z11PrintResultPKcPKiS2_S2_ii+0x211>
    176b:	48 8d 74 24 27       	lea    rsi,[rsp+0x27]
    1770:	ba 01 00 00 00       	mov    edx,0x1
    1775:	4c 89 ff             	mov    rdi,r15
    1778:	e8 03 f9 ff ff       	call   1080 <_ZSt16__ostream_insertIcSt11char_traitsIcEERSt13basic_ostreamIT_T0_ES6_PKS3_l@plt>
    177d:	48 8b 44 24 28       	mov    rax,QWORD PTR [rsp+0x28]
    1782:	64 48 2b 04 25 28 00 	sub    rax,QWORD PTR fs:0x28
    1789:	00 00 
    178b:	75 68                	jne    17f5 <_Z11PrintResultPKcPKiS2_S2_ii+0x245>
    178d:	48 83 c4 38          	add    rsp,0x38
    1791:	5b                   	pop    rbx
    1792:	5d                   	pop    rbp
    1793:	41 5c                	pop    r12
    1795:	41 5d                	pop    r13
    1797:	41 5e                	pop    r14
    1799:	41 5f                	pop    r15
    179b:	c3                   	ret
    179c:	0f 1f 40 00          	nop    DWORD PTR [rax+0x0]
    17a0:	be 0a 00 00 00       	mov    esi,0xa
    17a5:	e8 86 f8 ff ff       	call   1030 <_ZNSo3putEc@plt>
    17aa:	e9 2e ff ff ff       	jmp    16dd <_Z11PrintResultPKcPKiS2_S2_ii+0x12d>
    17af:	be 0a 00 00 00       	mov    esi,0xa
    17b4:	4c 89 ff             	mov    rdi,r15
    17b7:	e8 74 f8 ff ff       	call   1030 <_ZNSo3putEc@plt>
    17bc:	e9 5b ff ff ff       	jmp    171c <_Z11PrintResultPKcPKiS2_S2_ii+0x16c>
    17c1:	be 0a 00 00 00       	mov    esi,0xa
    17c6:	4c 89 ff             	mov    rdi,r15
    17c9:	e8 62 f8 ff ff       	call   1030 <_ZNSo3putEc@plt>
    17ce:	eb ad                	jmp    177d <_Z11PrintResultPKcPKiS2_S2_ii+0x1cd>
    17d0:	48 8b 05 69 28 00 00 	mov    rax,QWORD PTR [rip+0x2869]        # 4040 <_ZSt4cout@GLIBCXX_3.4>
    17d7:	4c 8d 3d 62 28 00 00 	lea    r15,[rip+0x2862]        # 4040 <_ZSt4cout@GLIBCXX_3.4>
    17de:	48 8b 78 e8          	mov    rdi,QWORD PTR [rax-0x18]
    17e2:	4c 01 ff             	add    rdi,r15
    17e5:	8b 77 20             	mov    esi,DWORD PTR [rdi+0x20]
    17e8:	83 ce 01             	or     esi,0x1
    17eb:	e8 a0 f8 ff ff       	call   1090 <_ZNSt9basic_iosIcSt11char_traitsIcEE5clearESt12_Ios_Iostate@plt>
    17f0:	e9 16 fe ff ff       	jmp    160b <_Z11PrintResultPKcPKiS2_S2_ii+0x5b>
    17f5:	e8 76 f8 ff ff       	call   1070 <__stack_chk_fail@plt>
    17fa:	66 0f 1f 44 00 00    	nop    WORD PTR [rax+rax*1+0x0]

0000000000001800 <_Z23CalcMatrixRowColSumsCppPiS_PKiii>:
    1800:	f3 0f 1e fa          	endbr64
    1804:	85 c9                	test   ecx,ecx
    1806:	7e 10                	jle    1818 <_Z23CalcMatrixRowColSumsCppPiS_PKiii+0x18>
    1808:	45 85 c0             	test   r8d,r8d
    180b:	7e 0b                	jle    1818 <_Z23CalcMatrixRowColSumsCppPiS_PKiii+0x18>
    180d:	e9 de fa ff ff       	jmp    12f0 <_Z23CalcMatrixRowColSumsCppPiS_PKiii.part.0>
    1812:	66 0f 1f 44 00 00    	nop    WORD PTR [rax+rax*1+0x0]
    1818:	31 c0                	xor    eax,eax
    181a:	c3                   	ret
    181b:	0f 1f 44 00 00       	nop    DWORD PTR [rax+rax*1+0x0]

0000000000001820 <CalcMatrixRowColSums_>:
    1820:	48 83 f9 00          	cmp    rcx,0x0
    1824:	7e 59                	jle    187f <CalcMatrixRowColSums_.InvalidDims>
    1826:	49 83 f8 00          	cmp    r8,0x0
    182a:	7e 53                	jle    187f <CalcMatrixRowColSums_.InvalidDims>
    182c:	4d 31 d2             	xor    r10,r10

000000000000182f <CalcMatrixRowColSums_.LoopColZero>:
    182f:	42 c7 04 96 00 00 00 	mov    DWORD PTR [rsi+r10*4],0x0
    1836:	00 
    1837:	41 ff c2             	inc    r10d
    183a:	45 39 c2             	cmp    r10d,r8d
    183d:	7c f0                	jl     182f <CalcMatrixRowColSums_.LoopColZero>
    183f:	4d 31 d2             	xor    r10,r10
    1842:	4d 31 c9             	xor    r9,r9

0000000000001845 <CalcMatrixRowColSums_.LoopRow>:
    1845:	42 c7 04 8f 00 00 00 	mov    DWORD PTR [rdi+r9*4],0x0
    184c:	00 
    184d:	4d 89 cb             	mov    r11,r9
    1850:	45 0f af d8          	imul   r11d,r8d

0000000000001854 <CalcMatrixRowColSums_.LoopSumCalcPerRow>:
    1854:	4d 89 df             	mov    r15,r11
    1857:	4d 01 d7             	add    r15,r10
    185a:	42 8b 04 ba          	mov    eax,DWORD PTR [rdx+r15*4]
    185e:	42 01 04 8f          	add    DWORD PTR [rdi+r9*4],eax
    1862:	42 01 04 96          	add    DWORD PTR [rsi+r10*4],eax
    1866:	41 ff c2             	inc    r10d
    1869:	45 39 c2             	cmp    r10d,r8d
    186c:	7c e6                	jl     1854 <CalcMatrixRowColSums_.LoopSumCalcPerRow>
    186e:	4d 31 d2             	xor    r10,r10
    1871:	41 ff c1             	inc    r9d
    1874:	41 39 c9             	cmp    r9d,ecx
    1877:	7c cc                	jl     1845 <CalcMatrixRowColSums_.LoopRow>
    1879:	b8 01 00 00 00       	mov    eax,0x1
    187e:	c3                   	ret

000000000000187f <CalcMatrixRowColSums_.InvalidDims>:
    187f:	48 31 c0             	xor    rax,rax
    1882:	c3                   	ret

Disassembly of section .fini:

0000000000001884 <_fini>:
    1884:	f3 0f 1e fa          	endbr64
    1888:	48 83 ec 08          	sub    rsp,0x8
    188c:	48 83 c4 08          	add    rsp,0x8
    1890:	c3                   	ret
