
L5/main:     file format elf64-x86-64


Disassembly of section .init:

0000000000001000 <_init>:
    1000:	f3 0f 1e fa          	endbr64
    1004:	48 83 ec 08          	sub    rsp,0x8
    1008:	48 8b 05 e1 2f 00 00 	mov    rax,QWORD PTR [rip+0x2fe1]        # 3ff0 <__gmon_start__@Base>
    100f:	48 85 c0             	test   rax,rax
    1012:	74 02                	je     1016 <_init+0x16>
    1014:	ff d0                	call   rax
    1016:	48 83 c4 08          	add    rsp,0x8
    101a:	c3                   	ret

Disassembly of section .plt:

0000000000001020 <_ZNSo3putEc@plt-0x10>:
    1020:	ff 35 6a 2f 00 00    	push   QWORD PTR [rip+0x2f6a]        # 3f90 <_GLOBAL_OFFSET_TABLE_+0x8>
    1026:	ff 25 6c 2f 00 00    	jmp    QWORD PTR [rip+0x2f6c]        # 3f98 <_GLOBAL_OFFSET_TABLE_+0x10>
    102c:	0f 1f 40 00          	nop    DWORD PTR [rax+0x0]

0000000000001030 <_ZNSo3putEc@plt>:
    1030:	ff 25 6a 2f 00 00    	jmp    QWORD PTR [rip+0x2f6a]        # 3fa0 <_ZNSo3putEc@GLIBCXX_3.4>
    1036:	68 00 00 00 00       	push   0x0
    103b:	e9 e0 ff ff ff       	jmp    1020 <_init+0x20>

0000000000001040 <_ZNSolsEs@plt>:
    1040:	ff 25 62 2f 00 00    	jmp    QWORD PTR [rip+0x2f62]        # 3fa8 <_ZNSolsEs@GLIBCXX_3.4>
    1046:	68 01 00 00 00       	push   0x1
    104b:	e9 d0 ff ff ff       	jmp    1020 <_init+0x20>

0000000000001050 <_ZNSo9_M_insertIlEERSoT_@plt>:
    1050:	ff 25 5a 2f 00 00    	jmp    QWORD PTR [rip+0x2f5a]        # 3fb0 <_ZNSo9_M_insertIlEERSoT_@GLIBCXX_3.4.9>
    1056:	68 02 00 00 00       	push   0x2
    105b:	e9 c0 ff ff ff       	jmp    1020 <_init+0x20>

0000000000001060 <_ZStlsISt11char_traitsIcEERSt13basic_ostreamIcT_ES5_PKc@plt>:
    1060:	ff 25 52 2f 00 00    	jmp    QWORD PTR [rip+0x2f52]        # 3fb8 <_ZStlsISt11char_traitsIcEERSt13basic_ostreamIcT_ES5_PKc@GLIBCXX_3.4>
    1066:	68 03 00 00 00       	push   0x3
    106b:	e9 b0 ff ff ff       	jmp    1020 <_init+0x20>

0000000000001070 <__stack_chk_fail@plt>:
    1070:	ff 25 4a 2f 00 00    	jmp    QWORD PTR [rip+0x2f4a]        # 3fc0 <__stack_chk_fail@GLIBC_2.4>
    1076:	68 04 00 00 00       	push   0x4
    107b:	e9 a0 ff ff ff       	jmp    1020 <_init+0x20>

0000000000001080 <_ZSt16__ostream_insertIcSt11char_traitsIcEERSt13basic_ostreamIT_T0_ES6_PKS3_l@plt>:
    1080:	ff 25 42 2f 00 00    	jmp    QWORD PTR [rip+0x2f42]        # 3fc8 <_ZSt16__ostream_insertIcSt11char_traitsIcEERSt13basic_ostreamIT_T0_ES6_PKS3_l@GLIBCXX_3.4.9>
    1086:	68 05 00 00 00       	push   0x5
    108b:	e9 90 ff ff ff       	jmp    1020 <_init+0x20>

0000000000001090 <_ZNSolsEi@plt>:
    1090:	ff 25 3a 2f 00 00    	jmp    QWORD PTR [rip+0x2f3a]        # 3fd0 <_ZNSolsEi@GLIBCXX_3.4>
    1096:	68 06 00 00 00       	push   0x6
    109b:	e9 80 ff ff ff       	jmp    1020 <_init+0x20>

Disassembly of section .plt.got:

00000000000010a0 <__cxa_finalize@plt>:
    10a0:	ff 25 32 2f 00 00    	jmp    QWORD PTR [rip+0x2f32]        # 3fd8 <__cxa_finalize@GLIBC_2.2.5>
    10a6:	66 90                	xchg   ax,ax

Disassembly of section .text:

00000000000010b0 <main>:
    10b0:	f3 0f 1e fa          	endbr64
    10b4:	41 54                	push   r12
    10b6:	4c 8d 25 54 0f 00 00 	lea    r12,[rip+0xf54]        # 2011 <_IO_stdin_used+0x11>
    10bd:	55                   	push   rbp
    10be:	53                   	push   rbx
    10bf:	48 8d 1d 7a 2f 00 00 	lea    rbx,[rip+0x2f7a]        # 4040 <_ZSt4cout@GLIBCXX_3.4>
    10c6:	48 83 ec 20          	sub    rsp,0x20
    10ca:	64 48 8b 04 25 28 00 	mov    rax,QWORD PTR fs:0x28
    10d1:	00 00 
    10d3:	48 89 44 24 18       	mov    QWORD PTR [rsp+0x18],rax
    10d8:	31 c0                	xor    eax,eax
    10da:	b8 d0 07 00 00       	mov    eax,0x7d0
    10df:	48 89 e7             	mov    rdi,rsp
    10e2:	c6 44 24 0e 9c       	mov    BYTE PTR [rsp+0xe],0x9c
    10e7:	66 89 44 24 0c       	mov    WORD PTR [rsp+0xc],ax
    10ec:	48 b8 00 90 2f 50 09 	movabs rax,0x9502f9000
    10f3:	00 00 00 
    10f6:	c7 44 24 08 20 6c fb 	mov    DWORD PTR [rsp+0x8],0xfffb6c20
    10fd:	ff 
    10fe:	48 89 04 24          	mov    QWORD PTR [rsp],rax
    1102:	e8 79 02 00 00       	call   1380 <CalcTestStructSum_>
    1107:	48 8d 35 f6 0e 00 00 	lea    rsi,[rip+0xef6]        # 2004 <_IO_stdin_used+0x4>
    110e:	48 89 df             	mov    rdi,rbx
    1111:	48 89 c5             	mov    rbp,rax
    1114:	e8 47 ff ff ff       	call   1060 <_ZStlsISt11char_traitsIcEERSt13basic_ostreamIcT_ES5_PKc@plt>
    1119:	0f be 74 24 0e       	movsx  esi,BYTE PTR [rsp+0xe]
    111e:	48 89 c7             	mov    rdi,rax
    1121:	e8 6a ff ff ff       	call   1090 <_ZNSolsEi@plt>
    1126:	be 0a 00 00 00       	mov    esi,0xa
    112b:	48 89 c7             	mov    rdi,rax
    112e:	e8 ed 01 00 00       	call   1320 <_ZStlsISt11char_traitsIcEERSt13basic_ostreamIcT_ES5_c.isra.0>
    1133:	4c 89 e6             	mov    rsi,r12
    1136:	48 89 df             	mov    rdi,rbx
    1139:	e8 22 ff ff ff       	call   1060 <_ZStlsISt11char_traitsIcEERSt13basic_ostreamIcT_ES5_PKc@plt>
    113e:	0f bf 74 24 0c       	movsx  esi,WORD PTR [rsp+0xc]
    1143:	48 89 c7             	mov    rdi,rax
    1146:	e8 f5 fe ff ff       	call   1040 <_ZNSolsEs@plt>
    114b:	be 0a 00 00 00       	mov    esi,0xa
    1150:	48 89 c7             	mov    rdi,rax
    1153:	e8 c8 01 00 00       	call   1320 <_ZStlsISt11char_traitsIcEERSt13basic_ostreamIcT_ES5_c.isra.0>
    1158:	48 8d 35 bf 0e 00 00 	lea    rsi,[rip+0xebf]        # 201e <_IO_stdin_used+0x1e>
    115f:	48 89 df             	mov    rdi,rbx
    1162:	e8 f9 fe ff ff       	call   1060 <_ZStlsISt11char_traitsIcEERSt13basic_ostreamIcT_ES5_PKc@plt>
    1167:	8b 74 24 08          	mov    esi,DWORD PTR [rsp+0x8]
    116b:	48 89 c7             	mov    rdi,rax
    116e:	e8 1d ff ff ff       	call   1090 <_ZNSolsEi@plt>
    1173:	be 0a 00 00 00       	mov    esi,0xa
    1178:	48 89 c7             	mov    rdi,rax
    117b:	e8 a0 01 00 00       	call   1320 <_ZStlsISt11char_traitsIcEERSt13basic_ostreamIcT_ES5_c.isra.0>
    1180:	4c 89 e6             	mov    rsi,r12
    1183:	48 89 df             	mov    rdi,rbx
    1186:	e8 d5 fe ff ff       	call   1060 <_ZStlsISt11char_traitsIcEERSt13basic_ostreamIcT_ES5_PKc@plt>
    118b:	48 8b 34 24          	mov    rsi,QWORD PTR [rsp]
    118f:	48 89 c7             	mov    rdi,rax
    1192:	e8 b9 fe ff ff       	call   1050 <_ZNSo9_M_insertIlEERSoT_@plt>
    1197:	be 0a 00 00 00       	mov    esi,0xa
    119c:	48 89 c7             	mov    rdi,rax
    119f:	e8 7c 01 00 00       	call   1320 <_ZStlsISt11char_traitsIcEERSt13basic_ostreamIcT_ES5_c.isra.0>
    11a4:	be 0a 00 00 00       	mov    esi,0xa
    11a9:	48 89 df             	mov    rdi,rbx
    11ac:	e8 6f 01 00 00       	call   1320 <_ZStlsISt11char_traitsIcEERSt13basic_ostreamIcT_ES5_c.isra.0>
    11b1:	48 8d 35 73 0e 00 00 	lea    rsi,[rip+0xe73]        # 202b <_IO_stdin_used+0x2b>
    11b8:	48 89 df             	mov    rdi,rbx
    11bb:	e8 a0 fe ff ff       	call   1060 <_ZStlsISt11char_traitsIcEERSt13basic_ostreamIcT_ES5_PKc@plt>
    11c0:	48 be 8c 03 2b 50 09 	movabs rsi,0x9502b038c
    11c7:	00 00 00 
    11ca:	48 89 c7             	mov    rdi,rax
    11cd:	e8 7e fe ff ff       	call   1050 <_ZNSo9_M_insertIlEERSoT_@plt>
    11d2:	be 0a 00 00 00       	mov    esi,0xa
    11d7:	48 89 c7             	mov    rdi,rax
    11da:	e8 41 01 00 00       	call   1320 <_ZStlsISt11char_traitsIcEERSt13basic_ostreamIcT_ES5_c.isra.0>
    11df:	48 8d 35 4d 0e 00 00 	lea    rsi,[rip+0xe4d]        # 2033 <_IO_stdin_used+0x33>
    11e6:	48 89 df             	mov    rdi,rbx
    11e9:	e8 72 fe ff ff       	call   1060 <_ZStlsISt11char_traitsIcEERSt13basic_ostreamIcT_ES5_PKc@plt>
    11ee:	48 89 ee             	mov    rsi,rbp
    11f1:	48 89 c7             	mov    rdi,rax
    11f4:	e8 57 fe ff ff       	call   1050 <_ZNSo9_M_insertIlEERSoT_@plt>
    11f9:	be 0a 00 00 00       	mov    esi,0xa
    11fe:	48 89 c7             	mov    rdi,rax
    1201:	e8 1a 01 00 00       	call   1320 <_ZStlsISt11char_traitsIcEERSt13basic_ostreamIcT_ES5_c.isra.0>
    1206:	48 8b 44 24 18       	mov    rax,QWORD PTR [rsp+0x18]
    120b:	64 48 2b 04 25 28 00 	sub    rax,QWORD PTR fs:0x28
    1212:	00 00 
    1214:	75 0b                	jne    1221 <main+0x171>
    1216:	48 83 c4 20          	add    rsp,0x20
    121a:	31 c0                	xor    eax,eax
    121c:	5b                   	pop    rbx
    121d:	5d                   	pop    rbp
    121e:	41 5c                	pop    r12
    1220:	c3                   	ret
    1221:	e8 4a fe ff ff       	call   1070 <__stack_chk_fail@plt>
    1226:	66 2e 0f 1f 84 00 00 	cs nop WORD PTR [rax+rax*1+0x0]
    122d:	00 00 00 

0000000000001230 <_start>:
    1230:	f3 0f 1e fa          	endbr64
    1234:	31 ed                	xor    ebp,ebp
    1236:	49 89 d1             	mov    r9,rdx
    1239:	5e                   	pop    rsi
    123a:	48 89 e2             	mov    rdx,rsp
    123d:	48 83 e4 f0          	and    rsp,0xfffffffffffffff0
    1241:	50                   	push   rax
    1242:	54                   	push   rsp
    1243:	45 31 c0             	xor    r8d,r8d
    1246:	31 c9                	xor    ecx,ecx
    1248:	48 8d 3d 61 fe ff ff 	lea    rdi,[rip+0xfffffffffffffe61]        # 10b0 <main>
    124f:	ff 15 8b 2d 00 00    	call   QWORD PTR [rip+0x2d8b]        # 3fe0 <__libc_start_main@GLIBC_2.34>
    1255:	f4                   	hlt
    1256:	66 2e 0f 1f 84 00 00 	cs nop WORD PTR [rax+rax*1+0x0]
    125d:	00 00 00 

0000000000001260 <deregister_tm_clones>:
    1260:	48 8d 3d a9 2d 00 00 	lea    rdi,[rip+0x2da9]        # 4010 <__TMC_END__>
    1267:	48 8d 05 a2 2d 00 00 	lea    rax,[rip+0x2da2]        # 4010 <__TMC_END__>
    126e:	48 39 f8             	cmp    rax,rdi
    1271:	74 15                	je     1288 <deregister_tm_clones+0x28>
    1273:	48 8b 05 6e 2d 00 00 	mov    rax,QWORD PTR [rip+0x2d6e]        # 3fe8 <_ITM_deregisterTMCloneTable@Base>
    127a:	48 85 c0             	test   rax,rax
    127d:	74 09                	je     1288 <deregister_tm_clones+0x28>
    127f:	ff e0                	jmp    rax
    1281:	0f 1f 80 00 00 00 00 	nop    DWORD PTR [rax+0x0]
    1288:	c3                   	ret
    1289:	0f 1f 80 00 00 00 00 	nop    DWORD PTR [rax+0x0]

0000000000001290 <register_tm_clones>:
    1290:	48 8d 3d 79 2d 00 00 	lea    rdi,[rip+0x2d79]        # 4010 <__TMC_END__>
    1297:	48 8d 35 72 2d 00 00 	lea    rsi,[rip+0x2d72]        # 4010 <__TMC_END__>
    129e:	48 29 fe             	sub    rsi,rdi
    12a1:	48 89 f0             	mov    rax,rsi
    12a4:	48 c1 ee 3f          	shr    rsi,0x3f
    12a8:	48 c1 f8 03          	sar    rax,0x3
    12ac:	48 01 c6             	add    rsi,rax
    12af:	48 d1 fe             	sar    rsi,1
    12b2:	74 14                	je     12c8 <register_tm_clones+0x38>
    12b4:	48 8b 05 3d 2d 00 00 	mov    rax,QWORD PTR [rip+0x2d3d]        # 3ff8 <_ITM_registerTMCloneTable@Base>
    12bb:	48 85 c0             	test   rax,rax
    12be:	74 08                	je     12c8 <register_tm_clones+0x38>
    12c0:	ff e0                	jmp    rax
    12c2:	66 0f 1f 44 00 00    	nop    WORD PTR [rax+rax*1+0x0]
    12c8:	c3                   	ret
    12c9:	0f 1f 80 00 00 00 00 	nop    DWORD PTR [rax+0x0]

00000000000012d0 <__do_global_dtors_aux>:
    12d0:	f3 0f 1e fa          	endbr64
    12d4:	80 3d 75 2e 00 00 00 	cmp    BYTE PTR [rip+0x2e75],0x0        # 4150 <completed.0>
    12db:	75 2b                	jne    1308 <__do_global_dtors_aux+0x38>
    12dd:	55                   	push   rbp
    12de:	48 83 3d f2 2c 00 00 	cmp    QWORD PTR [rip+0x2cf2],0x0        # 3fd8 <__cxa_finalize@GLIBC_2.2.5>
    12e5:	00 
    12e6:	48 89 e5             	mov    rbp,rsp
    12e9:	74 0c                	je     12f7 <__do_global_dtors_aux+0x27>
    12eb:	48 8b 3d 16 2d 00 00 	mov    rdi,QWORD PTR [rip+0x2d16]        # 4008 <__dso_handle>
    12f2:	e8 a9 fd ff ff       	call   10a0 <__cxa_finalize@plt>
    12f7:	e8 64 ff ff ff       	call   1260 <deregister_tm_clones>
    12fc:	c6 05 4d 2e 00 00 01 	mov    BYTE PTR [rip+0x2e4d],0x1        # 4150 <completed.0>
    1303:	5d                   	pop    rbp
    1304:	c3                   	ret
    1305:	0f 1f 00             	nop    DWORD PTR [rax]
    1308:	c3                   	ret
    1309:	0f 1f 80 00 00 00 00 	nop    DWORD PTR [rax+0x0]

0000000000001310 <frame_dummy>:
    1310:	f3 0f 1e fa          	endbr64
    1314:	e9 77 ff ff ff       	jmp    1290 <register_tm_clones>
    1319:	0f 1f 80 00 00 00 00 	nop    DWORD PTR [rax+0x0]

0000000000001320 <_ZStlsISt11char_traitsIcEERSt13basic_ostreamIcT_ES5_c.isra.0>:
    1320:	48 83 ec 18          	sub    rsp,0x18
    1324:	48 8b 07             	mov    rax,QWORD PTR [rdi]
    1327:	40 88 74 24 0c       	mov    BYTE PTR [rsp+0xc],sil
    132c:	48 8b 40 e8          	mov    rax,QWORD PTR [rax-0x18]
    1330:	48 83 7c 07 10 00    	cmp    QWORD PTR [rdi+rax*1+0x10],0x0
    1336:	74 14                	je     134c <_ZStlsISt11char_traitsIcEERSt13basic_ostreamIcT_ES5_c.isra.0+0x2c>
    1338:	48 8d 74 24 0c       	lea    rsi,[rsp+0xc]
    133d:	ba 01 00 00 00       	mov    edx,0x1
    1342:	e8 39 fd ff ff       	call   1080 <_ZSt16__ostream_insertIcSt11char_traitsIcEERSt13basic_ostreamIT_T0_ES6_PKS3_l@plt>
    1347:	48 83 c4 18          	add    rsp,0x18
    134b:	c3                   	ret
    134c:	0f be 74 24 0c       	movsx  esi,BYTE PTR [rsp+0xc]
    1351:	e8 da fc ff ff       	call   1030 <_ZNSo3putEc@plt>
    1356:	eb ef                	jmp    1347 <_ZStlsISt11char_traitsIcEERSt13basic_ostreamIcT_ES5_c.isra.0+0x27>
    1358:	0f 1f 84 00 00 00 00 	nop    DWORD PTR [rax+rax*1+0x0]
    135f:	00 

0000000000001360 <_Z20CalcTestStructSumCppPK10TestStruct>:
    1360:	f3 0f 1e fa          	endbr64
    1364:	0f be 47 0e          	movsx  eax,BYTE PTR [rdi+0xe]
    1368:	0f bf 57 0c          	movsx  edx,WORD PTR [rdi+0xc]
    136c:	01 d0                	add    eax,edx
    136e:	03 47 08             	add    eax,DWORD PTR [rdi+0x8]
    1371:	48 98                	cdqe
    1373:	48 03 07             	add    rax,QWORD PTR [rdi]
    1376:	c3                   	ret
    1377:	66 0f 1f 84 00 00 00 	nop    WORD PTR [rax+rax*1+0x0]
    137e:	00 00 

0000000000001380 <CalcTestStructSum_>:
    1380:	0f be 47 0e          	movsx  eax,BYTE PTR [rdi+0xe]
    1384:	0f bf 77 0c          	movsx  esi,WORD PTR [rdi+0xc]
    1388:	01 f0                	add    eax,esi
    138a:	48 63 c0             	movsxd rax,eax
    138d:	48 63 77 08          	movsxd rsi,DWORD PTR [rdi+0x8]
    1391:	48 01 f0             	add    rax,rsi
    1394:	48 03 07             	add    rax,QWORD PTR [rdi]
    1397:	c3                   	ret

Disassembly of section .fini:

0000000000001398 <_fini>:
    1398:	f3 0f 1e fa          	endbr64
    139c:	48 83 ec 08          	sub    rsp,0x8
    13a0:	48 83 c4 08          	add    rsp,0x8
    13a4:	c3                   	ret
