
L8/main:     file format elf64-x86-64


Disassembly of section .init:

0000000000001000 <_init>:
    1000:	f3 0f 1e fa          	endbr64
    1004:	48 83 ec 08          	sub    rsp,0x8
    1008:	48 8b 05 e1 2f 00 00 	mov    rax,QWORD PTR [rip+0x2fe1]        # 3ff0 <__gmon_start__@Base>
    100f:	48 85 c0             	test   rax,rax
    1012:	74 02                	je     1016 <_init+0x16>
    1014:	ff d0                	call   rax
    1016:	48 83 c4 08          	add    rsp,0x8
    101a:	c3                   	ret

Disassembly of section .plt:

0000000000001020 <_ZNSo3putEc@plt-0x10>:
    1020:	ff 35 72 2f 00 00    	push   QWORD PTR [rip+0x2f72]        # 3f98 <_GLOBAL_OFFSET_TABLE_+0x8>
    1026:	ff 25 74 2f 00 00    	jmp    QWORD PTR [rip+0x2f74]        # 3fa0 <_GLOBAL_OFFSET_TABLE_+0x10>
    102c:	0f 1f 40 00          	nop    DWORD PTR [rax+0x0]

0000000000001030 <_ZNSo3putEc@plt>:
    1030:	ff 25 72 2f 00 00    	jmp    QWORD PTR [rip+0x2f72]        # 3fa8 <_ZNSo3putEc@GLIBCXX_3.4>
    1036:	68 00 00 00 00       	push   0x0
    103b:	e9 e0 ff ff ff       	jmp    1020 <_init+0x20>

0000000000001040 <_ZStlsISt11char_traitsIcEERSt13basic_ostreamIcT_ES5_PKc@plt>:
    1040:	ff 25 6a 2f 00 00    	jmp    QWORD PTR [rip+0x2f6a]        # 3fb0 <_ZStlsISt11char_traitsIcEERSt13basic_ostreamIcT_ES5_PKc@GLIBCXX_3.4>
    1046:	68 01 00 00 00       	push   0x1
    104b:	e9 d0 ff ff ff       	jmp    1020 <_init+0x20>

0000000000001050 <__stack_chk_fail@plt>:
    1050:	ff 25 62 2f 00 00    	jmp    QWORD PTR [rip+0x2f62]        # 3fb8 <__stack_chk_fail@GLIBC_2.4>
    1056:	68 02 00 00 00       	push   0x2
    105b:	e9 c0 ff ff ff       	jmp    1020 <_init+0x20>

0000000000001060 <_ZSt16__ostream_insertIcSt11char_traitsIcEERSt13basic_ostreamIT_T0_ES6_PKS3_l@plt>:
    1060:	ff 25 5a 2f 00 00    	jmp    QWORD PTR [rip+0x2f5a]        # 3fc0 <_ZSt16__ostream_insertIcSt11char_traitsIcEERSt13basic_ostreamIT_T0_ES6_PKS3_l@GLIBCXX_3.4.9>
    1066:	68 03 00 00 00       	push   0x3
    106b:	e9 b0 ff ff ff       	jmp    1020 <_init+0x20>

0000000000001070 <_ZNSo9_M_insertIdEERSoT_@plt>:
    1070:	ff 25 52 2f 00 00    	jmp    QWORD PTR [rip+0x2f52]        # 3fc8 <_ZNSo9_M_insertIdEERSoT_@GLIBCXX_3.4.9>
    1076:	68 04 00 00 00       	push   0x4
    107b:	e9 a0 ff ff ff       	jmp    1020 <_init+0x20>

0000000000001080 <_ZNSolsEi@plt>:
    1080:	ff 25 4a 2f 00 00    	jmp    QWORD PTR [rip+0x2f4a]        # 3fd0 <_ZNSolsEi@GLIBCXX_3.4>
    1086:	68 05 00 00 00       	push   0x5
    108b:	e9 90 ff ff ff       	jmp    1020 <_init+0x20>

Disassembly of section .plt.got:

0000000000001090 <__cxa_finalize@plt>:
    1090:	ff 25 42 2f 00 00    	jmp    QWORD PTR [rip+0x2f42]        # 3fd8 <__cxa_finalize@GLIBC_2.2.5>
    1096:	66 90                	xchg   ax,ax

Disassembly of section .text:

00000000000010a0 <main>:
    10a0:	f3 0f 1e fa          	endbr64
    10a4:	41 57                	push   r15
    10a6:	b9 03 00 00 00       	mov    ecx,0x3
    10ab:	ba 06 00 00 00       	mov    edx,0x6
    10b0:	41 56                	push   r14
    10b2:	4c 8d 35 87 2f 00 00 	lea    r14,[rip+0x2f87]        # 4040 <_ZSt4cout@GLIBCXX_3.4>
    10b9:	41 55                	push   r13
    10bb:	41 54                	push   r12
    10bd:	55                   	push   rbp
    10be:	53                   	push   rbx
    10bf:	48 81 ec 38 01 00 00 	sub    rsp,0x138
    10c6:	0f 28 05 73 0f 00 00 	movaps xmm0,XMMWORD PTR [rip+0xf73]        # 2040 <_IO_stdin_used+0x40>
    10cd:	64 48 8b 04 25 28 00 	mov    rax,QWORD PTR fs:0x28
    10d4:	00 00 
    10d6:	48 89 84 24 28 01 00 	mov    QWORD PTR [rsp+0x128],rax
    10dd:	00 
    10de:	31 c0                	xor    eax,eax
    10e0:	48 8b 05 99 0f 00 00 	mov    rax,QWORD PTR [rip+0xf99]        # 2080 <_IO_stdin_used+0x80>
    10e7:	48 8d 9c 24 e0 00 00 	lea    rbx,[rsp+0xe0]
    10ee:	00 
    10ef:	4c 8d 7c 24 40       	lea    r15,[rsp+0x40]
    10f4:	0f 29 84 24 e0 00 00 	movaps XMMWORD PTR [rsp+0xe0],xmm0
    10fb:	00 
    10fc:	0f 28 05 4d 0f 00 00 	movaps xmm0,XMMWORD PTR [rip+0xf4d]        # 2050 <_IO_stdin_used+0x50>
    1103:	48 89 de             	mov    rsi,rbx
    1106:	48 89 84 24 20 01 00 	mov    QWORD PTR [rsp+0x120],rax
    110d:	00 
    110e:	48 8d 84 24 90 00 00 	lea    rax,[rsp+0x90]
    1115:	00 
    1116:	0f 29 84 24 f0 00 00 	movaps XMMWORD PTR [rsp+0xf0],xmm0
    111d:	00 
    111e:	0f 28 05 3b 0f 00 00 	movaps xmm0,XMMWORD PTR [rip+0xf3b]        # 2060 <_IO_stdin_used+0x60>
    1125:	48 89 c7             	mov    rdi,rax
    1128:	48 89 44 24 10       	mov    QWORD PTR [rsp+0x10],rax
    112d:	0f 29 84 24 00 01 00 	movaps XMMWORD PTR [rsp+0x100],xmm0
    1134:	00 
    1135:	0f 28 05 34 0f 00 00 	movaps xmm0,XMMWORD PTR [rip+0xf34]        # 2070 <_IO_stdin_used+0x70>
    113c:	0f 29 84 24 10 01 00 	movaps XMMWORD PTR [rsp+0x110],xmm0
    1143:	00 
    1144:	f3 0f 10 05 b8 0e 00 	movss  xmm0,DWORD PTR [rip+0xeb8]        # 2004 <_IO_stdin_used+0x4>
    114b:	00 
    114c:	e8 7f 04 00 00       	call   15d0 <_Z23CalcMatrixSquaresF32CppPfPKffii>
    1151:	b9 03 00 00 00       	mov    ecx,0x3
    1156:	48 89 de             	mov    rsi,rbx
    1159:	4c 89 ff             	mov    rdi,r15
    115c:	ba 06 00 00 00       	mov    edx,0x6
    1161:	e8 ea 04 00 00       	call   1650 <CalcMatrixSquaresF32_>
    1166:	48 8b 05 d3 2e 00 00 	mov    rax,QWORD PTR [rip+0x2ed3]        # 4040 <_ZSt4cout@GLIBCXX_3.4>
    116d:	48 8d 35 94 0e 00 00 	lea    rsi,[rip+0xe94]        # 2008 <_IO_stdin_used+0x8>
    1174:	4c 89 f7             	mov    rdi,r14
    1177:	48 8b 50 e8          	mov    rdx,QWORD PTR [rax-0x18]
    117b:	4c 01 f2             	add    rdx,r14
    117e:	8b 42 18             	mov    eax,DWORD PTR [rdx+0x18]
    1181:	48 c7 42 08 02 00 00 	mov    QWORD PTR [rdx+0x8],0x2
    1188:	00 
    1189:	25 fb fe ff ff       	and    eax,0xfffffefb
    118e:	83 c8 04             	or     eax,0x4
    1191:	89 42 18             	mov    DWORD PTR [rdx+0x18],eax
    1194:	e8 a7 fe ff ff       	call   1040 <_ZStlsISt11char_traitsIcEERSt13basic_ostreamIcT_ES5_PKc@plt>
    1199:	f2 0f 10 05 e7 0e 00 	movsd  xmm0,QWORD PTR [rip+0xee7]        # 2088 <_IO_stdin_used+0x88>
    11a0:	00 
    11a1:	48 89 c7             	mov    rdi,rax
    11a4:	48 8b 00             	mov    rax,QWORD PTR [rax]
    11a7:	48 8b 40 e8          	mov    rax,QWORD PTR [rax-0x18]
    11ab:	48 c7 44 07 10 02 00 	mov    QWORD PTR [rdi+rax*1+0x10],0x2
    11b2:	00 00 
    11b4:	e8 b7 fe ff ff       	call   1070 <_ZNSo9_M_insertIdEERSoT_@plt>
    11b9:	c6 44 24 3f 0a       	mov    BYTE PTR [rsp+0x3f],0xa
    11be:	48 89 c7             	mov    rdi,rax
    11c1:	48 8b 00             	mov    rax,QWORD PTR [rax]
    11c4:	48 8b 40 e8          	mov    rax,QWORD PTR [rax-0x18]
    11c8:	48 83 7c 07 10 00    	cmp    QWORD PTR [rdi+rax*1+0x10],0x0
    11ce:	0f 84 f2 02 00 00    	je     14c6 <main+0x426>
    11d4:	48 8d 74 24 3f       	lea    rsi,[rsp+0x3f]
    11d9:	ba 01 00 00 00       	mov    edx,0x1
    11de:	e8 7d fe ff ff       	call   1060 <_ZSt16__ostream_insertIcSt11char_traitsIcEERSt13basic_ostreamIT_T0_ES6_PKS3_l@plt>
    11e3:	48 8d 4c 24 3f       	lea    rcx,[rsp+0x3f]
    11e8:	48 89 da             	mov    rdx,rbx
    11eb:	31 c0                	xor    eax,eax
    11ed:	48 89 4c 24 28       	mov    QWORD PTR [rsp+0x28],rcx
    11f2:	66 0f 1f 44 00 00    	nop    WORD PTR [rax+rax*1+0x0]
    11f8:	48 89 54 24 18       	mov    QWORD PTR [rsp+0x18],rdx
    11fd:	48 8d 2c 40          	lea    rbp,[rax+rax*2]
    1201:	41 89 c5             	mov    r13d,eax
    1204:	49 89 d4             	mov    r12,rdx
    1207:	48 89 44 24 20       	mov    QWORD PTR [rsp+0x20],rax
    120c:	48 c1 e5 02          	shl    rbp,0x2
    1210:	31 db                	xor    ebx,ebx
    1212:	ba 03 00 00 00       	mov    edx,0x3
    1217:	48 8d 35 f4 0d 00 00 	lea    rsi,[rip+0xdf4]        # 2012 <_IO_stdin_used+0x12>
    121e:	4c 89 f7             	mov    rdi,r14
    1221:	e8 3a fe ff ff       	call   1060 <_ZSt16__ostream_insertIcSt11char_traitsIcEERSt13basic_ostreamIT_T0_ES6_PKS3_l@plt>
    1226:	49 8b 06             	mov    rax,QWORD PTR [r14]
    1229:	44 89 ee             	mov    esi,r13d
    122c:	4c 89 f7             	mov    rdi,r14
    122f:	48 8b 40 e8          	mov    rax,QWORD PTR [rax-0x18]
    1233:	49 c7 44 06 10 02 00 	mov    QWORD PTR [r14+rax*1+0x10],0x2
    123a:	00 00 
    123c:	e8 3f fe ff ff       	call   1080 <_ZNSolsEi@plt>
    1241:	ba 02 00 00 00       	mov    edx,0x2
    1246:	48 8d 35 c9 0d 00 00 	lea    rsi,[rip+0xdc9]        # 2016 <_IO_stdin_used+0x16>
    124d:	48 89 c7             	mov    rdi,rax
    1250:	48 89 04 24          	mov    QWORD PTR [rsp],rax
    1254:	e8 07 fe ff ff       	call   1060 <_ZSt16__ostream_insertIcSt11char_traitsIcEERSt13basic_ostreamIT_T0_ES6_PKS3_l@plt>
    1259:	48 8b 3c 24          	mov    rdi,QWORD PTR [rsp]
    125d:	89 de                	mov    esi,ebx
    125f:	48 8b 07             	mov    rax,QWORD PTR [rdi]
    1262:	48 8b 40 e8          	mov    rax,QWORD PTR [rax-0x18]
    1266:	48 c7 44 07 10 02 00 	mov    QWORD PTR [rdi+rax*1+0x10],0x2
    126d:	00 00 
    126f:	e8 0c fe ff ff       	call   1080 <_ZNSolsEi@plt>
    1274:	ba 04 00 00 00       	mov    edx,0x4
    1279:	48 8d 35 99 0d 00 00 	lea    rsi,[rip+0xd99]        # 2019 <_IO_stdin_used+0x19>
    1280:	48 89 c7             	mov    rdi,rax
    1283:	e8 d8 fd ff ff       	call   1060 <_ZSt16__ostream_insertIcSt11char_traitsIcEERSt13basic_ostreamIT_T0_ES6_PKS3_l@plt>
    1288:	49 8b 06             	mov    rax,QWORD PTR [r14]
    128b:	4c 89 f7             	mov    rdi,r14
    128e:	66 0f ef c0          	pxor   xmm0,xmm0
    1292:	48 8b 40 e8          	mov    rax,QWORD PTR [rax-0x18]
    1296:	49 c7 44 06 10 06 00 	mov    QWORD PTR [r14+rax*1+0x10],0x6
    129d:	00 00 
    129f:	48 8b 44 24 10       	mov    rax,QWORD PTR [rsp+0x10]
    12a4:	f3 0f 10 0c 28       	movss  xmm1,DWORD PTR [rax+rbp*1]
    12a9:	f3 0f 5a c1          	cvtss2sd xmm0,xmm1
    12ad:	f3 0f 11 0c 24       	movss  DWORD PTR [rsp],xmm1
    12b2:	e8 b9 fd ff ff       	call   1070 <_ZNSo9_M_insertIdEERSoT_@plt>
    12b7:	ba 03 00 00 00       	mov    edx,0x3
    12bc:	48 8d 35 5b 0d 00 00 	lea    rsi,[rip+0xd5b]        # 201e <_IO_stdin_used+0x1e>
    12c3:	48 89 c7             	mov    rdi,rax
    12c6:	e8 95 fd ff ff       	call   1060 <_ZSt16__ostream_insertIcSt11char_traitsIcEERSt13basic_ostreamIT_T0_ES6_PKS3_l@plt>
    12cb:	ba 03 00 00 00       	mov    edx,0x3
    12d0:	48 8d 35 4b 0d 00 00 	lea    rsi,[rip+0xd4b]        # 2022 <_IO_stdin_used+0x22>
    12d7:	4c 89 f7             	mov    rdi,r14
    12da:	e8 81 fd ff ff       	call   1060 <_ZSt16__ostream_insertIcSt11char_traitsIcEERSt13basic_ostreamIT_T0_ES6_PKS3_l@plt>
    12df:	49 8b 06             	mov    rax,QWORD PTR [r14]
    12e2:	44 89 ee             	mov    esi,r13d
    12e5:	4c 89 f7             	mov    rdi,r14
    12e8:	48 8b 40 e8          	mov    rax,QWORD PTR [rax-0x18]
    12ec:	49 c7 44 06 10 02 00 	mov    QWORD PTR [r14+rax*1+0x10],0x2
    12f3:	00 00 
    12f5:	e8 86 fd ff ff       	call   1080 <_ZNSolsEi@plt>
    12fa:	ba 02 00 00 00       	mov    edx,0x2
    12ff:	48 8d 35 10 0d 00 00 	lea    rsi,[rip+0xd10]        # 2016 <_IO_stdin_used+0x16>
    1306:	48 89 c7             	mov    rdi,rax
    1309:	48 89 44 24 08       	mov    QWORD PTR [rsp+0x8],rax
    130e:	e8 4d fd ff ff       	call   1060 <_ZSt16__ostream_insertIcSt11char_traitsIcEERSt13basic_ostreamIT_T0_ES6_PKS3_l@plt>
    1313:	48 8b 7c 24 08       	mov    rdi,QWORD PTR [rsp+0x8]
    1318:	89 de                	mov    esi,ebx
    131a:	48 8b 07             	mov    rax,QWORD PTR [rdi]
    131d:	48 8b 40 e8          	mov    rax,QWORD PTR [rax-0x18]
    1321:	48 c7 44 07 10 02 00 	mov    QWORD PTR [rdi+rax*1+0x10],0x2
    1328:	00 00 
    132a:	e8 51 fd ff ff       	call   1080 <_ZNSolsEi@plt>
    132f:	ba 04 00 00 00       	mov    edx,0x4
    1334:	48 8d 35 de 0c 00 00 	lea    rsi,[rip+0xcde]        # 2019 <_IO_stdin_used+0x19>
    133b:	48 89 c7             	mov    rdi,rax
    133e:	e8 1d fd ff ff       	call   1060 <_ZSt16__ostream_insertIcSt11char_traitsIcEERSt13basic_ostreamIT_T0_ES6_PKS3_l@plt>
    1343:	49 8b 06             	mov    rax,QWORD PTR [r14]
    1346:	4c 89 f7             	mov    rdi,r14
    1349:	66 0f ef c0          	pxor   xmm0,xmm0
    134d:	f3 41 0f 5a 04 2f    	cvtss2sd xmm0,DWORD PTR [r15+rbp*1]
    1353:	48 8b 40 e8          	mov    rax,QWORD PTR [rax-0x18]
    1357:	49 c7 44 06 10 06 00 	mov    QWORD PTR [r14+rax*1+0x10],0x6
    135e:	00 00 
    1360:	e8 0b fd ff ff       	call   1070 <_ZNSo9_M_insertIdEERSoT_@plt>
    1365:	ba 03 00 00 00       	mov    edx,0x3
    136a:	48 8d 35 ad 0c 00 00 	lea    rsi,[rip+0xcad]        # 201e <_IO_stdin_used+0x1e>
    1371:	48 89 c7             	mov    rdi,rax
    1374:	e8 e7 fc ff ff       	call   1060 <_ZSt16__ostream_insertIcSt11char_traitsIcEERSt13basic_ostreamIT_T0_ES6_PKS3_l@plt>
    1379:	ba 02 00 00 00       	mov    edx,0x2
    137e:	48 8d 35 a1 0c 00 00 	lea    rsi,[rip+0xca1]        # 2026 <_IO_stdin_used+0x26>
    1385:	4c 89 f7             	mov    rdi,r14
    1388:	e8 d3 fc ff ff       	call   1060 <_ZSt16__ostream_insertIcSt11char_traitsIcEERSt13basic_ostreamIT_T0_ES6_PKS3_l@plt>
    138d:	49 8b 06             	mov    rax,QWORD PTR [r14]
    1390:	89 de                	mov    esi,ebx
    1392:	4c 89 f7             	mov    rdi,r14
    1395:	48 8b 40 e8          	mov    rax,QWORD PTR [rax-0x18]
    1399:	49 c7 44 06 10 02 00 	mov    QWORD PTR [r14+rax*1+0x10],0x2
    13a0:	00 00 
    13a2:	e8 d9 fc ff ff       	call   1080 <_ZNSolsEi@plt>
    13a7:	ba 02 00 00 00       	mov    edx,0x2
    13ac:	48 8d 35 63 0c 00 00 	lea    rsi,[rip+0xc63]        # 2016 <_IO_stdin_used+0x16>
    13b3:	48 89 c7             	mov    rdi,rax
    13b6:	48 89 44 24 08       	mov    QWORD PTR [rsp+0x8],rax
    13bb:	e8 a0 fc ff ff       	call   1060 <_ZSt16__ostream_insertIcSt11char_traitsIcEERSt13basic_ostreamIT_T0_ES6_PKS3_l@plt>
    13c0:	48 8b 7c 24 08       	mov    rdi,QWORD PTR [rsp+0x8]
    13c5:	44 89 ee             	mov    esi,r13d
    13c8:	48 8b 07             	mov    rax,QWORD PTR [rdi]
    13cb:	48 8b 40 e8          	mov    rax,QWORD PTR [rax-0x18]
    13cf:	48 c7 44 07 10 02 00 	mov    QWORD PTR [rdi+rax*1+0x10],0x2
    13d6:	00 00 
    13d8:	e8 a3 fc ff ff       	call   1080 <_ZNSolsEi@plt>
    13dd:	ba 04 00 00 00       	mov    edx,0x4
    13e2:	48 8d 35 30 0c 00 00 	lea    rsi,[rip+0xc30]        # 2019 <_IO_stdin_used+0x19>
    13e9:	48 89 c7             	mov    rdi,rax
    13ec:	e8 6f fc ff ff       	call   1060 <_ZSt16__ostream_insertIcSt11char_traitsIcEERSt13basic_ostreamIT_T0_ES6_PKS3_l@plt>
    13f1:	49 8b 06             	mov    rax,QWORD PTR [r14]
    13f4:	4c 89 f7             	mov    rdi,r14
    13f7:	66 0f ef c0          	pxor   xmm0,xmm0
    13fb:	f3 41 0f 5a 04 24    	cvtss2sd xmm0,DWORD PTR [r12]
    1401:	48 8b 40 e8          	mov    rax,QWORD PTR [rax-0x18]
    1405:	49 c7 44 06 10 06 00 	mov    QWORD PTR [r14+rax*1+0x10],0x6
    140c:	00 00 
    140e:	e8 5d fc ff ff       	call   1070 <_ZNSo9_M_insertIdEERSoT_@plt>
    1413:	c6 44 24 3f 0a       	mov    BYTE PTR [rsp+0x3f],0xa
    1418:	48 89 c7             	mov    rdi,rax
    141b:	48 8b 00             	mov    rax,QWORD PTR [rax]
    141e:	48 8b 40 e8          	mov    rax,QWORD PTR [rax-0x18]
    1422:	48 83 7c 07 10 00    	cmp    QWORD PTR [rdi+rax*1+0x10],0x0
    1428:	74 76                	je     14a0 <main+0x400>
    142a:	48 8b 74 24 28       	mov    rsi,QWORD PTR [rsp+0x28]
    142f:	ba 01 00 00 00       	mov    edx,0x1
    1434:	e8 27 fc ff ff       	call   1060 <_ZSt16__ostream_insertIcSt11char_traitsIcEERSt13basic_ostreamIT_T0_ES6_PKS3_l@plt>
    1439:	f3 0f 10 14 24       	movss  xmm2,DWORD PTR [rsp]
    143e:	41 0f 2e 14 2f       	ucomiss xmm2,DWORD PTR [r15+rbp*1]
    1443:	7a 6b                	jp     14b0 <main+0x410>
    1445:	75 69                	jne    14b0 <main+0x410>
    1447:	83 c3 01             	add    ebx,0x1
    144a:	49 83 c4 0c          	add    r12,0xc
    144e:	48 83 c5 04          	add    rbp,0x4
    1452:	83 fb 03             	cmp    ebx,0x3
    1455:	0f 85 b7 fd ff ff    	jne    1212 <main+0x172>
    145b:	48 8b 44 24 20       	mov    rax,QWORD PTR [rsp+0x20]
    1460:	48 8b 54 24 18       	mov    rdx,QWORD PTR [rsp+0x18]
    1465:	48 83 c0 01          	add    rax,0x1
    1469:	48 83 c2 04          	add    rdx,0x4
    146d:	48 83 f8 06          	cmp    rax,0x6
    1471:	0f 85 81 fd ff ff    	jne    11f8 <main+0x158>
    1477:	48 8b 84 24 28 01 00 	mov    rax,QWORD PTR [rsp+0x128]
    147e:	00 
    147f:	64 48 2b 04 25 28 00 	sub    rax,QWORD PTR fs:0x28
    1486:	00 00 
    1488:	75 4b                	jne    14d5 <main+0x435>
    148a:	48 81 c4 38 01 00 00 	add    rsp,0x138
    1491:	31 c0                	xor    eax,eax
    1493:	5b                   	pop    rbx
    1494:	5d                   	pop    rbp
    1495:	41 5c                	pop    r12
    1497:	41 5d                	pop    r13
    1499:	41 5e                	pop    r14
    149b:	41 5f                	pop    r15
    149d:	c3                   	ret
    149e:	66 90                	xchg   ax,ax
    14a0:	be 0a 00 00 00       	mov    esi,0xa
    14a5:	e8 86 fb ff ff       	call   1030 <_ZNSo3putEc@plt>
    14aa:	eb 8d                	jmp    1439 <main+0x399>
    14ac:	0f 1f 40 00          	nop    DWORD PTR [rax+0x0]
    14b0:	ba 0f 00 00 00       	mov    edx,0xf
    14b5:	48 8d 35 6d 0b 00 00 	lea    rsi,[rip+0xb6d]        # 2029 <_IO_stdin_used+0x29>
    14bc:	4c 89 f7             	mov    rdi,r14
    14bf:	e8 9c fb ff ff       	call   1060 <_ZSt16__ostream_insertIcSt11char_traitsIcEERSt13basic_ostreamIT_T0_ES6_PKS3_l@plt>
    14c4:	eb 81                	jmp    1447 <main+0x3a7>
    14c6:	be 0a 00 00 00       	mov    esi,0xa
    14cb:	e8 60 fb ff ff       	call   1030 <_ZNSo3putEc@plt>
    14d0:	e9 0e fd ff ff       	jmp    11e3 <main+0x143>
    14d5:	e8 76 fb ff ff       	call   1050 <__stack_chk_fail@plt>
    14da:	66 0f 1f 44 00 00    	nop    WORD PTR [rax+rax*1+0x0]

00000000000014e0 <_start>:
    14e0:	f3 0f 1e fa          	endbr64
    14e4:	31 ed                	xor    ebp,ebp
    14e6:	49 89 d1             	mov    r9,rdx
    14e9:	5e                   	pop    rsi
    14ea:	48 89 e2             	mov    rdx,rsp
    14ed:	48 83 e4 f0          	and    rsp,0xfffffffffffffff0
    14f1:	50                   	push   rax
    14f2:	54                   	push   rsp
    14f3:	45 31 c0             	xor    r8d,r8d
    14f6:	31 c9                	xor    ecx,ecx
    14f8:	48 8d 3d a1 fb ff ff 	lea    rdi,[rip+0xfffffffffffffba1]        # 10a0 <main>
    14ff:	ff 15 db 2a 00 00    	call   QWORD PTR [rip+0x2adb]        # 3fe0 <__libc_start_main@GLIBC_2.34>
    1505:	f4                   	hlt
    1506:	66 2e 0f 1f 84 00 00 	cs nop WORD PTR [rax+rax*1+0x0]
    150d:	00 00 00 

0000000000001510 <deregister_tm_clones>:
    1510:	48 8d 3d f9 2a 00 00 	lea    rdi,[rip+0x2af9]        # 4010 <__TMC_END__>
    1517:	48 8d 05 f2 2a 00 00 	lea    rax,[rip+0x2af2]        # 4010 <__TMC_END__>
    151e:	48 39 f8             	cmp    rax,rdi
    1521:	74 15                	je     1538 <deregister_tm_clones+0x28>
    1523:	48 8b 05 be 2a 00 00 	mov    rax,QWORD PTR [rip+0x2abe]        # 3fe8 <_ITM_deregisterTMCloneTable@Base>
    152a:	48 85 c0             	test   rax,rax
    152d:	74 09                	je     1538 <deregister_tm_clones+0x28>
    152f:	ff e0                	jmp    rax
    1531:	0f 1f 80 00 00 00 00 	nop    DWORD PTR [rax+0x0]
    1538:	c3                   	ret
    1539:	0f 1f 80 00 00 00 00 	nop    DWORD PTR [rax+0x0]

0000000000001540 <register_tm_clones>:
    1540:	48 8d 3d c9 2a 00 00 	lea    rdi,[rip+0x2ac9]        # 4010 <__TMC_END__>
    1547:	48 8d 35 c2 2a 00 00 	lea    rsi,[rip+0x2ac2]        # 4010 <__TMC_END__>
    154e:	48 29 fe             	sub    rsi,rdi
    1551:	48 89 f0             	mov    rax,rsi
    1554:	48 c1 ee 3f          	shr    rsi,0x3f
    1558:	48 c1 f8 03          	sar    rax,0x3
    155c:	48 01 c6             	add    rsi,rax
    155f:	48 d1 fe             	sar    rsi,1
    1562:	74 14                	je     1578 <register_tm_clones+0x38>
    1564:	48 8b 05 8d 2a 00 00 	mov    rax,QWORD PTR [rip+0x2a8d]        # 3ff8 <_ITM_registerTMCloneTable@Base>
    156b:	48 85 c0             	test   rax,rax
    156e:	74 08                	je     1578 <register_tm_clones+0x38>
    1570:	ff e0                	jmp    rax
    1572:	66 0f 1f 44 00 00    	nop    WORD PTR [rax+rax*1+0x0]
    1578:	c3                   	ret
    1579:	0f 1f 80 00 00 00 00 	nop    DWORD PTR [rax+0x0]

0000000000001580 <__do_global_dtors_aux>:
    1580:	f3 0f 1e fa          	endbr64
    1584:	80 3d c5 2b 00 00 00 	cmp    BYTE PTR [rip+0x2bc5],0x0        # 4150 <completed.0>
    158b:	75 2b                	jne    15b8 <__do_global_dtors_aux+0x38>
    158d:	55                   	push   rbp
    158e:	48 83 3d 42 2a 00 00 	cmp    QWORD PTR [rip+0x2a42],0x0        # 3fd8 <__cxa_finalize@GLIBC_2.2.5>
    1595:	00 
    1596:	48 89 e5             	mov    rbp,rsp
    1599:	74 0c                	je     15a7 <__do_global_dtors_aux+0x27>
    159b:	48 8b 3d 66 2a 00 00 	mov    rdi,QWORD PTR [rip+0x2a66]        # 4008 <__dso_handle>
    15a2:	e8 e9 fa ff ff       	call   1090 <__cxa_finalize@plt>
    15a7:	e8 64 ff ff ff       	call   1510 <deregister_tm_clones>
    15ac:	c6 05 9d 2b 00 00 01 	mov    BYTE PTR [rip+0x2b9d],0x1        # 4150 <completed.0>
    15b3:	5d                   	pop    rbp
    15b4:	c3                   	ret
    15b5:	0f 1f 00             	nop    DWORD PTR [rax]
    15b8:	c3                   	ret
    15b9:	0f 1f 80 00 00 00 00 	nop    DWORD PTR [rax+0x0]

00000000000015c0 <frame_dummy>:
    15c0:	f3 0f 1e fa          	endbr64
    15c4:	e9 77 ff ff ff       	jmp    1540 <register_tm_clones>
    15c9:	0f 1f 80 00 00 00 00 	nop    DWORD PTR [rax+0x0]

00000000000015d0 <_Z23CalcMatrixSquaresF32CppPfPKffii>:
    15d0:	f3 0f 1e fa          	endbr64
    15d4:	85 d2                	test   edx,edx
    15d6:	7e 68                	jle    1640 <_Z23CalcMatrixSquaresF32CppPfPKffii+0x70>
    15d8:	55                   	push   rbp
    15d9:	48 63 e9             	movsxd rbp,ecx
    15dc:	49 89 f8             	mov    r8,rdi
    15df:	41 89 d3             	mov    r11d,edx
    15e2:	53                   	push   rbx
    15e3:	48 8d 3c ad 00 00 00 	lea    rdi,[rbp*4+0x0]
    15ea:	00 
    15eb:	89 cb                	mov    ebx,ecx
    15ed:	45 31 d2             	xor    r10d,r10d
    15f0:	45 31 c9             	xor    r9d,r9d
    15f3:	0f 1f 44 00 00       	nop    DWORD PTR [rax+rax*1+0x0]
    15f8:	85 db                	test   ebx,ebx
    15fa:	7e 31                	jle    162d <_Z23CalcMatrixSquaresF32CppPfPKffii+0x5d>
    15fc:	49 63 d2             	movsxd rdx,r10d
    15ff:	49 8d 04 90          	lea    rax,[r8+rdx*4]
    1603:	48 01 ea             	add    rdx,rbp
    1606:	49 8d 0c 90          	lea    rcx,[r8+rdx*4]
    160a:	48 89 f2             	mov    rdx,rsi
    160d:	0f 1f 00             	nop    DWORD PTR [rax]
    1610:	f3 0f 10 0a          	movss  xmm1,DWORD PTR [rdx]
    1614:	48 83 c0 04          	add    rax,0x4
    1618:	48 01 fa             	add    rdx,rdi
    161b:	f3 0f 59 c9          	mulss  xmm1,xmm1
    161f:	f3 0f 58 c8          	addss  xmm1,xmm0
    1623:	f3 0f 11 48 fc       	movss  DWORD PTR [rax-0x4],xmm1
    1628:	48 39 c8             	cmp    rax,rcx
    162b:	75 e3                	jne    1610 <_Z23CalcMatrixSquaresF32CppPfPKffii+0x40>
    162d:	41 83 c1 01          	add    r9d,0x1
    1631:	48 83 c6 04          	add    rsi,0x4
    1635:	41 01 da             	add    r10d,ebx
    1638:	45 39 cb             	cmp    r11d,r9d
    163b:	75 bb                	jne    15f8 <_Z23CalcMatrixSquaresF32CppPfPKffii+0x28>
    163d:	5b                   	pop    rbx
    163e:	5d                   	pop    rbp
    163f:	c3                   	ret
    1640:	c3                   	ret
    1641:	66 2e 0f 1f 84 00 00 	cs nop WORD PTR [rax+rax*1+0x0]
    1648:	00 00 00 
    164b:	0f 1f 44 00 00       	nop    DWORD PTR [rax+rax*1+0x0]

0000000000001650 <CalcMatrixSquaresF32_>:
    1650:	48 83 fa 00          	cmp    rdx,0x0
    1654:	7e 42                	jle    1698 <CalcMatrixSquaresF32_.InvalidCount>
    1656:	48 83 f9 00          	cmp    rcx,0x0
    165a:	7e 3c                	jle    1698 <CalcMatrixSquaresF32_.InvalidCount>
    165c:	45 31 c0             	xor    r8d,r8d

000000000000165f <CalcMatrixSquaresF32_.OuterLoop>:
    165f:	45 31 c9             	xor    r9d,r9d

0000000000001662 <CalcMatrixSquaresF32_.InnerLoop>:
    1662:	44 89 c8             	mov    eax,r9d
    1665:	0f af c1             	imul   eax,ecx
    1668:	44 01 c0             	add    eax,r8d
    166b:	45 89 c3             	mov    r11d,r8d
    166e:	44 0f af d9          	imul   r11d,ecx
    1672:	45 01 cb             	add    r11d,r9d
    1675:	c5 fa 10 0c 86       	vmovss xmm1,DWORD PTR [rsi+rax*4]
    167a:	c5 f2 59 c9          	vmulss xmm1,xmm1,xmm1
    167e:	c5 f2 58 d0          	vaddss xmm2,xmm1,xmm0
    1682:	c4 a1 7a 11 14 9f    	vmovss DWORD PTR [rdi+r11*4],xmm2
    1688:	41 ff c1             	inc    r9d
    168b:	41 39 c9             	cmp    r9d,ecx
    168e:	7c d2                	jl     1662 <CalcMatrixSquaresF32_.InnerLoop>
    1690:	41 ff c0             	inc    r8d
    1693:	41 39 d0             	cmp    r8d,edx
    1696:	7c c7                	jl     165f <CalcMatrixSquaresF32_.OuterLoop>

0000000000001698 <CalcMatrixSquaresF32_.InvalidCount>:
    1698:	c3                   	ret

Disassembly of section .fini:

000000000000169c <_fini>:
    169c:	f3 0f 1e fa          	endbr64
    16a0:	48 83 ec 08          	sub    rsp,0x8
    16a4:	48 83 c4 08          	add    rsp,0x8
    16a8:	c3                   	ret
