
L2/main:     file format elf64-x86-64


Disassembly of section .init:

0000000000001000 <_init>:
    1000:	f3 0f 1e fa          	endbr64
    1004:	48 83 ec 08          	sub    rsp,0x8
    1008:	48 8b 05 e1 2f 00 00 	mov    rax,QWORD PTR [rip+0x2fe1]        # 3ff0 <__gmon_start__@Base>
    100f:	48 85 c0             	test   rax,rax
    1012:	74 02                	je     1016 <_init+0x16>
    1014:	ff d0                	call   rax
    1016:	48 83 c4 08          	add    rsp,0x8
    101a:	c3                   	ret

Disassembly of section .plt:

0000000000001020 <_ZNSo3putEc@plt-0x10>:
    1020:	ff 35 6a 2f 00 00    	push   QWORD PTR [rip+0x2f6a]        # 3f90 <_GLOBAL_OFFSET_TABLE_+0x8>
    1026:	ff 25 6c 2f 00 00    	jmp    QWORD PTR [rip+0x2f6c]        # 3f98 <_GLOBAL_OFFSET_TABLE_+0x10>
    102c:	0f 1f 40 00          	nop    DWORD PTR [rax+0x0]

0000000000001030 <_ZNSo3putEc@plt>:
    1030:	ff 25 6a 2f 00 00    	jmp    QWORD PTR [rip+0x2f6a]        # 3fa0 <_ZNSo3putEc@GLIBCXX_3.4>
    1036:	68 00 00 00 00       	push   0x0
    103b:	e9 e0 ff ff ff       	jmp    1020 <_init+0x20>

0000000000001040 <_ZNSo9_M_insertIxEERSoT_@plt>:
    1040:	ff 25 62 2f 00 00    	jmp    QWORD PTR [rip+0x2f62]        # 3fa8 <_ZNSo9_M_insertIxEERSoT_@GLIBCXX_3.4.9>
    1046:	68 01 00 00 00       	push   0x1
    104b:	e9 d0 ff ff ff       	jmp    1020 <_init+0x20>

0000000000001050 <_ZNSolsEs@plt>:
    1050:	ff 25 5a 2f 00 00    	jmp    QWORD PTR [rip+0x2f5a]        # 3fb0 <_ZNSolsEs@GLIBCXX_3.4>
    1056:	68 02 00 00 00       	push   0x2
    105b:	e9 c0 ff ff ff       	jmp    1020 <_init+0x20>

0000000000001060 <_ZStlsISt11char_traitsIcEERSt13basic_ostreamIcT_ES5_PKc@plt>:
    1060:	ff 25 52 2f 00 00    	jmp    QWORD PTR [rip+0x2f52]        # 3fb8 <_ZStlsISt11char_traitsIcEERSt13basic_ostreamIcT_ES5_PKc@GLIBCXX_3.4>
    1066:	68 03 00 00 00       	push   0x3
    106b:	e9 b0 ff ff ff       	jmp    1020 <_init+0x20>

0000000000001070 <__stack_chk_fail@plt>:
    1070:	ff 25 4a 2f 00 00    	jmp    QWORD PTR [rip+0x2f4a]        # 3fc0 <__stack_chk_fail@GLIBC_2.4>
    1076:	68 04 00 00 00       	push   0x4
    107b:	e9 a0 ff ff ff       	jmp    1020 <_init+0x20>

0000000000001080 <_ZSt16__ostream_insertIcSt11char_traitsIcEERSt13basic_ostreamIT_T0_ES6_PKS3_l@plt>:
    1080:	ff 25 42 2f 00 00    	jmp    QWORD PTR [rip+0x2f42]        # 3fc8 <_ZSt16__ostream_insertIcSt11char_traitsIcEERSt13basic_ostreamIT_T0_ES6_PKS3_l@GLIBCXX_3.4.9>
    1086:	68 05 00 00 00       	push   0x5
    108b:	e9 90 ff ff ff       	jmp    1020 <_init+0x20>

0000000000001090 <_ZNSolsEi@plt>:
    1090:	ff 25 3a 2f 00 00    	jmp    QWORD PTR [rip+0x2f3a]        # 3fd0 <_ZNSolsEi@GLIBCXX_3.4>
    1096:	68 06 00 00 00       	push   0x6
    109b:	e9 80 ff ff ff       	jmp    1020 <_init+0x20>

Disassembly of section .plt.got:

00000000000010a0 <__cxa_finalize@plt>:
    10a0:	ff 25 32 2f 00 00    	jmp    QWORD PTR [rip+0x2f32]        # 3fd8 <__cxa_finalize@GLIBC_2.2.5>
    10a6:	66 90                	xchg   ax,ax

Disassembly of section .text:

00000000000010b0 <main>:
    10b0:	f3 0f 1e fa          	endbr64
    10b4:	41 57                	push   r15
    10b6:	45 31 db             	xor    r11d,r11d
    10b9:	41 56                	push   r14
    10bb:	41 55                	push   r13
    10bd:	41 54                	push   r12
    10bf:	55                   	push   rbp
    10c0:	53                   	push   rbx
    10c1:	48 81 ec 38 01 00 00 	sub    rsp,0x138
    10c8:	66 0f 6f 05 70 0f 00 	movdqa xmm0,XMMWORD PTR [rip+0xf70]        # 2040 <_IO_stdin_used+0x40>
    10cf:	00 
    10d0:	64 48 8b 04 25 28 00 	mov    rax,QWORD PTR fs:0x28
    10d7:	00 00 
    10d9:	48 89 84 24 28 01 00 	mov    QWORD PTR [rsp+0x128],rax
    10e0:	00 
    10e1:	31 c0                	xor    eax,eax
    10e3:	4c 8d 74 24 30       	lea    r14,[rsp+0x30]
    10e8:	4c 8d 7c 24 60       	lea    r15,[rsp+0x60]
    10ed:	0f 29 44 24 30       	movaps XMMWORD PTR [rsp+0x30],xmm0
    10f2:	66 0f 6f 05 56 0f 00 	movdqa xmm0,XMMWORD PTR [rip+0xf56]        # 2050 <_IO_stdin_used+0x50>
    10f9:	00 
    10fa:	0f 29 44 24 40       	movaps XMMWORD PTR [rsp+0x40],xmm0
    10ff:	66 0f 6f 05 59 0f 00 	movdqa xmm0,XMMWORD PTR [rip+0xf59]        # 2060 <_IO_stdin_used+0x60>
    1106:	00 
    1107:	0f 29 44 24 50       	movaps XMMWORD PTR [rsp+0x50],xmm0
    110c:	0f 1f 40 00          	nop    DWORD PTR [rax+0x0]
    1110:	49 63 14 86          	movsxd rdx,DWORD PTR [r14+rax*4]
    1114:	48 8d 0c 95 00 00 00 	lea    rcx,[rdx*4+0x0]
    111b:	00 
    111c:	48 29 ca             	sub    rdx,rcx
    111f:	48 8d 54 12 f3       	lea    rdx,[rdx+rdx*1-0xd]
    1124:	49 89 14 c7          	mov    QWORD PTR [r15+rax*8],rdx
    1128:	48 83 c0 01          	add    rax,0x1
    112c:	49 01 d3             	add    r11,rdx
    112f:	48 83 f8 0c          	cmp    rax,0xc
    1133:	75 db                	jne    1110 <main+0x60>
    1135:	41 b8 0c 00 00 00    	mov    r8d,0xc
    113b:	b9 f3 ff ff ff       	mov    ecx,0xfffffff3
    1140:	4c 89 f6             	mov    rsi,r14
    1143:	31 db                	xor    ebx,ebx
    1145:	4c 8d a4 24 c0 00 00 	lea    r12,[rsp+0xc0]
    114c:	00 
    114d:	ba fa ff ff ff       	mov    edx,0xfffffffa
    1152:	4c 8d 2d e7 2e 00 00 	lea    r13,[rip+0x2ee7]        # 4040 <_ZSt4cout@GLIBCXX_3.4>
    1159:	4c 89 5c 24 18       	mov    QWORD PTR [rsp+0x18],r11
    115e:	4c 89 e7             	mov    rdi,r12
    1161:	48 8d 2d b2 0e 00 00 	lea    rbp,[rip+0xeb2]        # 201a <_IO_stdin_used+0x1a>
    1168:	e8 f3 03 00 00       	call   1560 <CalcArrayValues_>
    116d:	48 8d 35 90 0e 00 00 	lea    rsi,[rip+0xe90]        # 2004 <_IO_stdin_used+0x4>
    1174:	4c 89 ef             	mov    rdi,r13
    1177:	48 89 44 24 10       	mov    QWORD PTR [rsp+0x10],rax
    117c:	e8 df fe ff ff       	call   1060 <_ZStlsISt11char_traitsIcEERSt13basic_ostreamIcT_ES5_PKc@plt>
    1181:	be fa ff ff ff       	mov    esi,0xfffffffa
    1186:	48 89 c7             	mov    rdi,rax
    1189:	e8 02 ff ff ff       	call   1090 <_ZNSolsEi@plt>
    118e:	be 0a 00 00 00       	mov    esi,0xa
    1193:	48 89 c7             	mov    rdi,rax
    1196:	e8 35 03 00 00       	call   14d0 <_ZStlsISt11char_traitsIcEERSt13basic_ostreamIcT_ES5_c.isra.0>
    119b:	48 8d 35 67 0e 00 00 	lea    rsi,[rip+0xe67]        # 2009 <_IO_stdin_used+0x9>
    11a2:	4c 89 ef             	mov    rdi,r13
    11a5:	e8 b6 fe ff ff       	call   1060 <_ZStlsISt11char_traitsIcEERSt13basic_ostreamIcT_ES5_PKc@plt>
    11aa:	be f3 ff ff ff       	mov    esi,0xfffffff3
    11af:	48 89 c7             	mov    rdi,rax
    11b2:	e8 99 fe ff ff       	call   1050 <_ZNSolsEs@plt>
    11b7:	be 0a 00 00 00       	mov    esi,0xa
    11bc:	48 89 c7             	mov    rdi,rax
    11bf:	e8 0c 03 00 00       	call   14d0 <_ZStlsISt11char_traitsIcEERSt13basic_ostreamIcT_ES5_c.isra.0>
    11c4:	48 8d 35 43 0e 00 00 	lea    rsi,[rip+0xe43]        # 200e <_IO_stdin_used+0xe>
    11cb:	4c 89 ef             	mov    rdi,r13
    11ce:	e8 8d fe ff ff       	call   1060 <_ZStlsISt11char_traitsIcEERSt13basic_ostreamIcT_ES5_PKc@plt>
    11d3:	be 0c 00 00 00       	mov    esi,0xc
    11d8:	48 89 c7             	mov    rdi,rax
    11db:	e8 b0 fe ff ff       	call   1090 <_ZNSolsEi@plt>
    11e0:	48 8d 35 2c 0e 00 00 	lea    rsi,[rip+0xe2c]        # 2013 <_IO_stdin_used+0x13>
    11e7:	48 89 c7             	mov    rdi,rax
    11ea:	e8 71 fe ff ff       	call   1060 <_ZStlsISt11char_traitsIcEERSt13basic_ostreamIcT_ES5_PKc@plt>
    11ef:	48 8d 44 24 2f       	lea    rax,[rsp+0x2f]
    11f4:	48 89 44 24 08       	mov    QWORD PTR [rsp+0x8],rax
    11f9:	eb 22                	jmp    121d <main+0x16d>
    11fb:	0f 1f 44 00 00       	nop    DWORD PTR [rax+rax*1+0x0]
    1200:	48 8b 74 24 08       	mov    rsi,QWORD PTR [rsp+0x8]
    1205:	ba 01 00 00 00       	mov    edx,0x1
    120a:	48 83 c3 01          	add    rbx,0x1
    120e:	e8 6d fe ff ff       	call   1080 <_ZSt16__ostream_insertIcSt11char_traitsIcEERSt13basic_ostreamIT_T0_ES6_PKS3_l@plt>
    1213:	48 83 fb 0c          	cmp    rbx,0xc
    1217:	0f 84 25 01 00 00    	je     1342 <main+0x292>
    121d:	ba 03 00 00 00       	mov    edx,0x3
    1222:	48 8d 35 ed 0d 00 00 	lea    rsi,[rip+0xded]        # 2016 <_IO_stdin_used+0x16>
    1229:	4c 89 ef             	mov    rdi,r13
    122c:	e8 4f fe ff ff       	call   1080 <_ZSt16__ostream_insertIcSt11char_traitsIcEERSt13basic_ostreamIT_T0_ES6_PKS3_l@plt>
    1231:	49 8b 45 00          	mov    rax,QWORD PTR [r13+0x0]
    1235:	89 de                	mov    esi,ebx
    1237:	4c 89 ef             	mov    rdi,r13
    123a:	48 8b 40 e8          	mov    rax,QWORD PTR [rax-0x18]
    123e:	49 c7 44 05 10 02 00 	mov    QWORD PTR [r13+rax*1+0x10],0x2
    1245:	00 00 
    1247:	e8 44 fe ff ff       	call   1090 <_ZNSolsEi@plt>
    124c:	ba 02 00 00 00       	mov    edx,0x2
    1251:	48 89 ee             	mov    rsi,rbp
    1254:	48 89 c7             	mov    rdi,rax
    1257:	e8 24 fe ff ff       	call   1080 <_ZSt16__ostream_insertIcSt11char_traitsIcEERSt13basic_ostreamIT_T0_ES6_PKS3_l@plt>
    125c:	ba 03 00 00 00       	mov    edx,0x3
    1261:	48 8d 35 b5 0d 00 00 	lea    rsi,[rip+0xdb5]        # 201d <_IO_stdin_used+0x1d>
    1268:	4c 89 ef             	mov    rdi,r13
    126b:	e8 10 fe ff ff       	call   1080 <_ZSt16__ostream_insertIcSt11char_traitsIcEERSt13basic_ostreamIT_T0_ES6_PKS3_l@plt>
    1270:	49 8b 45 00          	mov    rax,QWORD PTR [r13+0x0]
    1274:	41 8b 34 9e          	mov    esi,DWORD PTR [r14+rbx*4]
    1278:	4c 89 ef             	mov    rdi,r13
    127b:	48 8b 40 e8          	mov    rax,QWORD PTR [rax-0x18]
    127f:	49 c7 44 05 10 06 00 	mov    QWORD PTR [r13+rax*1+0x10],0x6
    1286:	00 00 
    1288:	e8 03 fe ff ff       	call   1090 <_ZNSolsEi@plt>
    128d:	ba 02 00 00 00       	mov    edx,0x2
    1292:	48 89 ee             	mov    rsi,rbp
    1295:	48 89 c7             	mov    rdi,rax
    1298:	e8 e3 fd ff ff       	call   1080 <_ZSt16__ostream_insertIcSt11char_traitsIcEERSt13basic_ostreamIT_T0_ES6_PKS3_l@plt>
    129d:	ba 04 00 00 00       	mov    edx,0x4
    12a2:	48 8d 35 78 0d 00 00 	lea    rsi,[rip+0xd78]        # 2021 <_IO_stdin_used+0x21>
    12a9:	4c 89 ef             	mov    rdi,r13
    12ac:	e8 cf fd ff ff       	call   1080 <_ZSt16__ostream_insertIcSt11char_traitsIcEERSt13basic_ostreamIT_T0_ES6_PKS3_l@plt>
    12b1:	49 8b 45 00          	mov    rax,QWORD PTR [r13+0x0]
    12b5:	49 8b 34 df          	mov    rsi,QWORD PTR [r15+rbx*8]
    12b9:	4c 89 ef             	mov    rdi,r13
    12bc:	48 8b 40 e8          	mov    rax,QWORD PTR [rax-0x18]
    12c0:	49 c7 44 05 10 06 00 	mov    QWORD PTR [r13+rax*1+0x10],0x6
    12c7:	00 00 
    12c9:	e8 72 fd ff ff       	call   1040 <_ZNSo9_M_insertIxEERSoT_@plt>
    12ce:	ba 02 00 00 00       	mov    edx,0x2
    12d3:	48 89 ee             	mov    rsi,rbp
    12d6:	48 89 c7             	mov    rdi,rax
    12d9:	e8 a2 fd ff ff       	call   1080 <_ZSt16__ostream_insertIcSt11char_traitsIcEERSt13basic_ostreamIT_T0_ES6_PKS3_l@plt>
    12de:	ba 04 00 00 00       	mov    edx,0x4
    12e3:	48 8d 35 3c 0d 00 00 	lea    rsi,[rip+0xd3c]        # 2026 <_IO_stdin_used+0x26>
    12ea:	4c 89 ef             	mov    rdi,r13
    12ed:	e8 8e fd ff ff       	call   1080 <_ZSt16__ostream_insertIcSt11char_traitsIcEERSt13basic_ostreamIT_T0_ES6_PKS3_l@plt>
    12f2:	49 8b 45 00          	mov    rax,QWORD PTR [r13+0x0]
    12f6:	49 8b 34 dc          	mov    rsi,QWORD PTR [r12+rbx*8]
    12fa:	4c 89 ef             	mov    rdi,r13
    12fd:	48 8b 40 e8          	mov    rax,QWORD PTR [rax-0x18]
    1301:	49 c7 44 05 10 06 00 	mov    QWORD PTR [r13+rax*1+0x10],0x6
    1308:	00 00 
    130a:	e8 31 fd ff ff       	call   1040 <_ZNSo9_M_insertIxEERSoT_@plt>
    130f:	c6 44 24 2f 0a       	mov    BYTE PTR [rsp+0x2f],0xa
    1314:	48 89 c7             	mov    rdi,rax
    1317:	48 8b 00             	mov    rax,QWORD PTR [rax]
    131a:	48 8b 40 e8          	mov    rax,QWORD PTR [rax-0x18]
    131e:	48 83 7c 07 10 00    	cmp    QWORD PTR [rdi+rax*1+0x10],0x0
    1324:	0f 85 d6 fe ff ff    	jne    1200 <main+0x150>
    132a:	be 0a 00 00 00       	mov    esi,0xa
    132f:	48 83 c3 01          	add    rbx,0x1
    1333:	e8 f8 fc ff ff       	call   1030 <_ZNSo3putEc@plt>
    1338:	48 83 fb 0c          	cmp    rbx,0xc
    133c:	0f 85 db fe ff ff    	jne    121d <main+0x16d>
    1342:	4c 8b 5c 24 18       	mov    r11,QWORD PTR [rsp+0x18]
    1347:	be 0a 00 00 00       	mov    esi,0xa
    134c:	4c 89 ef             	mov    rdi,r13
    134f:	4c 89 5c 24 08       	mov    QWORD PTR [rsp+0x8],r11
    1354:	e8 77 01 00 00       	call   14d0 <_ZStlsISt11char_traitsIcEERSt13basic_ostreamIcT_ES5_c.isra.0>
    1359:	48 8d 35 cb 0c 00 00 	lea    rsi,[rip+0xccb]        # 202b <_IO_stdin_used+0x2b>
    1360:	4c 89 ef             	mov    rdi,r13
    1363:	e8 f8 fc ff ff       	call   1060 <_ZStlsISt11char_traitsIcEERSt13basic_ostreamIcT_ES5_PKc@plt>
    1368:	48 8b 74 24 08       	mov    rsi,QWORD PTR [rsp+0x8]
    136d:	48 89 c7             	mov    rdi,rax
    1370:	e8 cb fc ff ff       	call   1040 <_ZNSo9_M_insertIxEERSoT_@plt>
    1375:	be 0a 00 00 00       	mov    esi,0xa
    137a:	48 89 c7             	mov    rdi,rax
    137d:	e8 4e 01 00 00       	call   14d0 <_ZStlsISt11char_traitsIcEERSt13basic_ostreamIcT_ES5_c.isra.0>
    1382:	48 8d 35 ac 0c 00 00 	lea    rsi,[rip+0xcac]        # 2035 <_IO_stdin_used+0x35>
    1389:	4c 89 ef             	mov    rdi,r13
    138c:	e8 cf fc ff ff       	call   1060 <_ZStlsISt11char_traitsIcEERSt13basic_ostreamIcT_ES5_PKc@plt>
    1391:	48 8b 74 24 10       	mov    rsi,QWORD PTR [rsp+0x10]
    1396:	48 89 c7             	mov    rdi,rax
    1399:	e8 a2 fc ff ff       	call   1040 <_ZNSo9_M_insertIxEERSoT_@plt>
    139e:	be 0a 00 00 00       	mov    esi,0xa
    13a3:	48 89 c7             	mov    rdi,rax
    13a6:	e8 25 01 00 00       	call   14d0 <_ZStlsISt11char_traitsIcEERSt13basic_ostreamIcT_ES5_c.isra.0>
    13ab:	48 8b 84 24 28 01 00 	mov    rax,QWORD PTR [rsp+0x128]
    13b2:	00 
    13b3:	64 48 2b 04 25 28 00 	sub    rax,QWORD PTR fs:0x28
    13ba:	00 00 
    13bc:	75 14                	jne    13d2 <main+0x322>
    13be:	48 81 c4 38 01 00 00 	add    rsp,0x138
    13c5:	31 c0                	xor    eax,eax
    13c7:	5b                   	pop    rbx
    13c8:	5d                   	pop    rbp
    13c9:	41 5c                	pop    r12
    13cb:	41 5d                	pop    r13
    13cd:	41 5e                	pop    r14
    13cf:	41 5f                	pop    r15
    13d1:	c3                   	ret
    13d2:	e8 99 fc ff ff       	call   1070 <__stack_chk_fail@plt>
    13d7:	66 0f 1f 84 00 00 00 	nop    WORD PTR [rax+rax*1+0x0]
    13de:	00 00 

00000000000013e0 <_start>:
    13e0:	f3 0f 1e fa          	endbr64
    13e4:	31 ed                	xor    ebp,ebp
    13e6:	49 89 d1             	mov    r9,rdx
    13e9:	5e                   	pop    rsi
    13ea:	48 89 e2             	mov    rdx,rsp
    13ed:	48 83 e4 f0          	and    rsp,0xfffffffffffffff0
    13f1:	50                   	push   rax
    13f2:	54                   	push   rsp
    13f3:	45 31 c0             	xor    r8d,r8d
    13f6:	31 c9                	xor    ecx,ecx
    13f8:	48 8d 3d b1 fc ff ff 	lea    rdi,[rip+0xfffffffffffffcb1]        # 10b0 <main>
    13ff:	ff 15 db 2b 00 00    	call   QWORD PTR [rip+0x2bdb]        # 3fe0 <__libc_start_main@GLIBC_2.34>
    1405:	f4                   	hlt
    1406:	66 2e 0f 1f 84 00 00 	cs nop WORD PTR [rax+rax*1+0x0]
    140d:	00 00 00 

0000000000001410 <deregister_tm_clones>:
    1410:	48 8d 3d f9 2b 00 00 	lea    rdi,[rip+0x2bf9]        # 4010 <__TMC_END__>
    1417:	48 8d 05 f2 2b 00 00 	lea    rax,[rip+0x2bf2]        # 4010 <__TMC_END__>
    141e:	48 39 f8             	cmp    rax,rdi
    1421:	74 15                	je     1438 <deregister_tm_clones+0x28>
    1423:	48 8b 05 be 2b 00 00 	mov    rax,QWORD PTR [rip+0x2bbe]        # 3fe8 <_ITM_deregisterTMCloneTable@Base>
    142a:	48 85 c0             	test   rax,rax
    142d:	74 09                	je     1438 <deregister_tm_clones+0x28>
    142f:	ff e0                	jmp    rax
    1431:	0f 1f 80 00 00 00 00 	nop    DWORD PTR [rax+0x0]
    1438:	c3                   	ret
    1439:	0f 1f 80 00 00 00 00 	nop    DWORD PTR [rax+0x0]

0000000000001440 <register_tm_clones>:
    1440:	48 8d 3d c9 2b 00 00 	lea    rdi,[rip+0x2bc9]        # 4010 <__TMC_END__>
    1447:	48 8d 35 c2 2b 00 00 	lea    rsi,[rip+0x2bc2]        # 4010 <__TMC_END__>
    144e:	48 29 fe             	sub    rsi,rdi
    1451:	48 89 f0             	mov    rax,rsi
    1454:	48 c1 ee 3f          	shr    rsi,0x3f
    1458:	48 c1 f8 03          	sar    rax,0x3
    145c:	48 01 c6             	add    rsi,rax
    145f:	48 d1 fe             	sar    rsi,1
    1462:	74 14                	je     1478 <register_tm_clones+0x38>
    1464:	48 8b 05 8d 2b 00 00 	mov    rax,QWORD PTR [rip+0x2b8d]        # 3ff8 <_ITM_registerTMCloneTable@Base>
    146b:	48 85 c0             	test   rax,rax
    146e:	74 08                	je     1478 <register_tm_clones+0x38>
    1470:	ff e0                	jmp    rax
    1472:	66 0f 1f 44 00 00    	nop    WORD PTR [rax+rax*1+0x0]
    1478:	c3                   	ret
    1479:	0f 1f 80 00 00 00 00 	nop    DWORD PTR [rax+0x0]

0000000000001480 <__do_global_dtors_aux>:
    1480:	f3 0f 1e fa          	endbr64
    1484:	80 3d c5 2c 00 00 00 	cmp    BYTE PTR [rip+0x2cc5],0x0        # 4150 <completed.0>
    148b:	75 2b                	jne    14b8 <__do_global_dtors_aux+0x38>
    148d:	55                   	push   rbp
    148e:	48 83 3d 42 2b 00 00 	cmp    QWORD PTR [rip+0x2b42],0x0        # 3fd8 <__cxa_finalize@GLIBC_2.2.5>
    1495:	00 
    1496:	48 89 e5             	mov    rbp,rsp
    1499:	74 0c                	je     14a7 <__do_global_dtors_aux+0x27>
    149b:	48 8b 3d 66 2b 00 00 	mov    rdi,QWORD PTR [rip+0x2b66]        # 4008 <__dso_handle>
    14a2:	e8 f9 fb ff ff       	call   10a0 <__cxa_finalize@plt>
    14a7:	e8 64 ff ff ff       	call   1410 <deregister_tm_clones>
    14ac:	c6 05 9d 2c 00 00 01 	mov    BYTE PTR [rip+0x2c9d],0x1        # 4150 <completed.0>
    14b3:	5d                   	pop    rbp
    14b4:	c3                   	ret
    14b5:	0f 1f 00             	nop    DWORD PTR [rax]
    14b8:	c3                   	ret
    14b9:	0f 1f 80 00 00 00 00 	nop    DWORD PTR [rax+0x0]

00000000000014c0 <frame_dummy>:
    14c0:	f3 0f 1e fa          	endbr64
    14c4:	e9 77 ff ff ff       	jmp    1440 <register_tm_clones>
    14c9:	0f 1f 80 00 00 00 00 	nop    DWORD PTR [rax+0x0]

00000000000014d0 <_ZStlsISt11char_traitsIcEERSt13basic_ostreamIcT_ES5_c.isra.0>:
    14d0:	48 83 ec 18          	sub    rsp,0x18
    14d4:	48 8b 07             	mov    rax,QWORD PTR [rdi]
    14d7:	40 88 74 24 0c       	mov    BYTE PTR [rsp+0xc],sil
    14dc:	48 8b 40 e8          	mov    rax,QWORD PTR [rax-0x18]
    14e0:	48 83 7c 07 10 00    	cmp    QWORD PTR [rdi+rax*1+0x10],0x0
    14e6:	74 14                	je     14fc <_ZStlsISt11char_traitsIcEERSt13basic_ostreamIcT_ES5_c.isra.0+0x2c>
    14e8:	48 8d 74 24 0c       	lea    rsi,[rsp+0xc]
    14ed:	ba 01 00 00 00       	mov    edx,0x1
    14f2:	e8 89 fb ff ff       	call   1080 <_ZSt16__ostream_insertIcSt11char_traitsIcEERSt13basic_ostreamIT_T0_ES6_PKS3_l@plt>
    14f7:	48 83 c4 18          	add    rsp,0x18
    14fb:	c3                   	ret
    14fc:	0f be 74 24 0c       	movsx  esi,BYTE PTR [rsp+0xc]
    1501:	e8 2a fb ff ff       	call   1030 <_ZNSo3putEc@plt>
    1506:	eb ef                	jmp    14f7 <_ZStlsISt11char_traitsIcEERSt13basic_ostreamIcT_ES5_c.isra.0+0x27>
    1508:	0f 1f 84 00 00 00 00 	nop    DWORD PTR [rax+rax*1+0x0]
    150f:	00 

0000000000001510 <_Z18CalcArrayValuesCppPxPKiisi>:
    1510:	f3 0f 1e fa          	endbr64
    1514:	49 89 f9             	mov    r9,rdi
    1517:	49 89 f2             	mov    r10,rsi
    151a:	45 85 c0             	test   r8d,r8d
    151d:	7e 31                	jle    1550 <_Z18CalcArrayValuesCppPxPKiisi+0x40>
    151f:	48 63 d2             	movsxd rdx,edx
    1522:	48 0f bf c9          	movsx  rcx,cx
    1526:	4d 63 c0             	movsxd r8,r8d
    1529:	31 f6                	xor    esi,esi
    152b:	31 ff                	xor    edi,edi
    152d:	0f 1f 00             	nop    DWORD PTR [rax]
    1530:	49 63 04 b2          	movsxd rax,DWORD PTR [r10+rsi*4]
    1534:	48 0f af c2          	imul   rax,rdx
    1538:	48 01 c8             	add    rax,rcx
    153b:	49 89 04 f1          	mov    QWORD PTR [r9+rsi*8],rax
    153f:	48 83 c6 01          	add    rsi,0x1
    1543:	48 01 c7             	add    rdi,rax
    1546:	4c 39 c6             	cmp    rsi,r8
    1549:	75 e5                	jne    1530 <_Z18CalcArrayValuesCppPxPKiisi+0x20>
    154b:	48 89 f8             	mov    rax,rdi
    154e:	c3                   	ret
    154f:	90                   	nop
    1550:	31 ff                	xor    edi,edi
    1552:	48 89 f8             	mov    rax,rdi
    1555:	c3                   	ret
    1556:	66 2e 0f 1f 84 00 00 	cs nop WORD PTR [rax+rax*1+0x0]
    155d:	00 00 00 

0000000000001560 <CalcArrayValues_>:
    1560:	48 31 c0             	xor    rax,rax
    1563:	4d 31 d2             	xor    r10,r10
    1566:	4d 31 db             	xor    r11,r11
    1569:	41 83 f8 00          	cmp    r8d,0x0
    156d:	7e 24                	jle    1593 <InvalidCount>
    156f:	48 63 d2             	movsxd rdx,edx
    1572:	48 63 c9             	movsxd rcx,ecx

0000000000001575 <CalcArrayValues_.CalcLoop>:
    1575:	4a 63 04 9e          	movsxd rax,DWORD PTR [rsi+r11*4]
    1579:	48 0f af c2          	imul   rax,rdx
    157d:	48 01 c8             	add    rax,rcx
    1580:	4a 89 04 df          	mov    QWORD PTR [rdi+r11*8],rax
    1584:	49 01 c2             	add    r10,rax
    1587:	49 ff c3             	inc    r11
    158a:	45 39 c3             	cmp    r11d,r8d
    158d:	75 e6                	jne    1575 <CalcArrayValues_.CalcLoop>
    158f:	4c 89 d0             	mov    rax,r10
    1592:	c3                   	ret

0000000000001593 <InvalidCount>:
    1593:	48 31 c0             	xor    rax,rax
    1596:	c3                   	ret

Disassembly of section .fini:

0000000000001598 <_fini>:
    1598:	f3 0f 1e fa          	endbr64
    159c:	48 83 ec 08          	sub    rsp,0x8
    15a0:	48 83 c4 08          	add    rsp,0x8
    15a4:	c3                   	ret
