
L4/main:     file format elf64-x86-64


Disassembly of section .init:

0000000000001000 <_init>:
    1000:	f3 0f 1e fa          	endbr64
    1004:	48 83 ec 08          	sub    rsp,0x8
    1008:	48 8b 05 e1 2f 00 00 	mov    rax,QWORD PTR [rip+0x2fe1]        # 3ff0 <__gmon_start__@Base>
    100f:	48 85 c0             	test   rax,rax
    1012:	74 02                	je     1016 <_init+0x16>
    1014:	ff d0                	call   rax
    1016:	48 83 c4 08          	add    rsp,0x8
    101a:	c3                   	ret

Disassembly of section .plt:

0000000000001020 <_ZNSo3putEc@plt-0x10>:
    1020:	ff 35 52 2f 00 00    	push   QWORD PTR [rip+0x2f52]        # 3f78 <_GLOBAL_OFFSET_TABLE_+0x8>
    1026:	ff 25 54 2f 00 00    	jmp    QWORD PTR [rip+0x2f54]        # 3f80 <_GLOBAL_OFFSET_TABLE_+0x10>
    102c:	0f 1f 40 00          	nop    DWORD PTR [rax+0x0]

0000000000001030 <_ZNSo3putEc@plt>:
    1030:	ff 25 52 2f 00 00    	jmp    QWORD PTR [rip+0x2f52]        # 3f88 <_ZNSo3putEc@GLIBCXX_3.4>
    1036:	68 00 00 00 00       	push   0x0
    103b:	e9 e0 ff ff ff       	jmp    1020 <_init+0x20>

0000000000001040 <strlen@plt>:
    1040:	ff 25 4a 2f 00 00    	jmp    QWORD PTR [rip+0x2f4a]        # 3f90 <strlen@GLIBC_2.2.5>
    1046:	68 01 00 00 00       	push   0x1
    104b:	e9 d0 ff ff ff       	jmp    1020 <_init+0x20>

0000000000001050 <__cxa_atexit@plt>:
    1050:	ff 25 42 2f 00 00    	jmp    QWORD PTR [rip+0x2f42]        # 3f98 <__cxa_atexit@GLIBC_2.2.5>
    1056:	68 02 00 00 00       	push   0x2
    105b:	e9 c0 ff ff ff       	jmp    1020 <_init+0x20>

0000000000001060 <__stack_chk_fail@plt>:
    1060:	ff 25 3a 2f 00 00    	jmp    QWORD PTR [rip+0x2f3a]        # 3fa0 <__stack_chk_fail@GLIBC_2.4>
    1066:	68 03 00 00 00       	push   0x3
    106b:	e9 b0 ff ff ff       	jmp    1020 <_init+0x20>

0000000000001070 <_ZSt16__ostream_insertIcSt11char_traitsIcEERSt13basic_ostreamIT_T0_ES6_PKS3_l@plt>:
    1070:	ff 25 32 2f 00 00    	jmp    QWORD PTR [rip+0x2f32]        # 3fa8 <_ZSt16__ostream_insertIcSt11char_traitsIcEERSt13basic_ostreamIT_T0_ES6_PKS3_l@GLIBCXX_3.4.9>
    1076:	68 04 00 00 00       	push   0x4
    107b:	e9 a0 ff ff ff       	jmp    1020 <_init+0x20>

0000000000001080 <_ZNSt7__cxx1112basic_stringIcSt11char_traitsIcESaIcEE12_M_constructEmc@plt>:
    1080:	ff 25 2a 2f 00 00    	jmp    QWORD PTR [rip+0x2f2a]        # 3fb0 <_ZNSt7__cxx1112basic_stringIcSt11char_traitsIcESaIcEE12_M_constructEmc@GLIBCXX_3.4.21>
    1086:	68 05 00 00 00       	push   0x5
    108b:	e9 90 ff ff ff       	jmp    1020 <_init+0x20>

0000000000001090 <_ZNSo9_M_insertIdEERSoT_@plt>:
    1090:	ff 25 22 2f 00 00    	jmp    QWORD PTR [rip+0x2f22]        # 3fb8 <_ZNSo9_M_insertIdEERSoT_@GLIBCXX_3.4.9>
    1096:	68 06 00 00 00       	push   0x6
    109b:	e9 80 ff ff ff       	jmp    1020 <_init+0x20>

00000000000010a0 <_ZNSo9_M_insertIbEERSoT_@plt>:
    10a0:	ff 25 1a 2f 00 00    	jmp    QWORD PTR [rip+0x2f1a]        # 3fc0 <_ZNSo9_M_insertIbEERSoT_@GLIBCXX_3.4.9>
    10a6:	68 07 00 00 00       	push   0x7
    10ab:	e9 70 ff ff ff       	jmp    1020 <_init+0x20>

00000000000010b0 <_ZNSt9basic_iosIcSt11char_traitsIcEE5clearESt12_Ios_Iostate@plt>:
    10b0:	ff 25 12 2f 00 00    	jmp    QWORD PTR [rip+0x2f12]        # 3fc8 <_ZNSt9basic_iosIcSt11char_traitsIcEE5clearESt12_Ios_Iostate@GLIBCXX_3.4>
    10b6:	68 08 00 00 00       	push   0x8
    10bb:	e9 60 ff ff ff       	jmp    1020 <_init+0x20>

Disassembly of section .plt.got:

00000000000010c0 <__cxa_finalize@plt>:
    10c0:	ff 25 0a 2f 00 00    	jmp    QWORD PTR [rip+0x2f0a]        # 3fd0 <__cxa_finalize@GLIBC_2.2.5>
    10c6:	66 90                	xchg   ax,ax

Disassembly of section .text:

00000000000010d0 <main>:
    10d0:	f3 0f 1e fa          	endbr64
    10d4:	48 83 ec 08          	sub    rsp,0x8
    10d8:	e8 43 01 00 00       	call   1220 <_Z14CompareVCOMISSv>
    10dd:	e8 7e 02 00 00       	call   1360 <_Z14CompareVCOMISDv>
    10e2:	31 c0                	xor    eax,eax
    10e4:	48 83 c4 08          	add    rsp,0x8
    10e8:	c3                   	ret
    10e9:	0f 1f 80 00 00 00 00 	nop    DWORD PTR [rax+0x0]

00000000000010f0 <_GLOBAL__sub_I_c_OpStrings>:
    10f0:	f3 0f 1e fa          	endbr64
    10f4:	53                   	push   rbx
    10f5:	48 8d 1d a4 30 00 00 	lea    rbx,[rip+0x30a4]        # 41a0 <_ZL8g_Dashes>
    10fc:	ba 2d 00 00 00       	mov    edx,0x2d
    1101:	be 48 00 00 00       	mov    esi,0x48
    1106:	48 8d 43 10          	lea    rax,[rbx+0x10]
    110a:	48 89 df             	mov    rdi,rbx
    110d:	48 89 05 8c 30 00 00 	mov    QWORD PTR [rip+0x308c],rax        # 41a0 <_ZL8g_Dashes>
    1114:	e8 67 ff ff ff       	call   1080 <_ZNSt7__cxx1112basic_stringIcSt11char_traitsIcESaIcEE12_M_constructEmc@plt>
    1119:	48 8b 3d b8 2e 00 00 	mov    rdi,QWORD PTR [rip+0x2eb8]        # 3fd8 <_ZNSt7__cxx1112basic_stringIcSt11char_traitsIcESaIcEED1Ev@GLIBCXX_3.4.21>
    1120:	48 89 de             	mov    rsi,rbx
    1123:	5b                   	pop    rbx
    1124:	48 8d 15 dd 2e 00 00 	lea    rdx,[rip+0x2edd]        # 4008 <__dso_handle>
    112b:	e9 20 ff ff ff       	jmp    1050 <__cxa_atexit@plt>

0000000000001130 <_start>:
    1130:	f3 0f 1e fa          	endbr64
    1134:	31 ed                	xor    ebp,ebp
    1136:	49 89 d1             	mov    r9,rdx
    1139:	5e                   	pop    rsi
    113a:	48 89 e2             	mov    rdx,rsp
    113d:	48 83 e4 f0          	and    rsp,0xfffffffffffffff0
    1141:	50                   	push   rax
    1142:	54                   	push   rsp
    1143:	45 31 c0             	xor    r8d,r8d
    1146:	31 c9                	xor    ecx,ecx
    1148:	48 8d 3d 81 ff ff ff 	lea    rdi,[rip+0xffffffffffffff81]        # 10d0 <main>
    114f:	ff 15 8b 2e 00 00    	call   QWORD PTR [rip+0x2e8b]        # 3fe0 <__libc_start_main@GLIBC_2.34>
    1155:	f4                   	hlt
    1156:	66 2e 0f 1f 84 00 00 	cs nop WORD PTR [rax+rax*1+0x0]
    115d:	00 00 00 

0000000000001160 <deregister_tm_clones>:
    1160:	48 8d 3d f1 2e 00 00 	lea    rdi,[rip+0x2ef1]        # 4058 <__TMC_END__>
    1167:	48 8d 05 ea 2e 00 00 	lea    rax,[rip+0x2eea]        # 4058 <__TMC_END__>
    116e:	48 39 f8             	cmp    rax,rdi
    1171:	74 15                	je     1188 <deregister_tm_clones+0x28>
    1173:	48 8b 05 6e 2e 00 00 	mov    rax,QWORD PTR [rip+0x2e6e]        # 3fe8 <_ITM_deregisterTMCloneTable@Base>
    117a:	48 85 c0             	test   rax,rax
    117d:	74 09                	je     1188 <deregister_tm_clones+0x28>
    117f:	ff e0                	jmp    rax
    1181:	0f 1f 80 00 00 00 00 	nop    DWORD PTR [rax+0x0]
    1188:	c3                   	ret
    1189:	0f 1f 80 00 00 00 00 	nop    DWORD PTR [rax+0x0]

0000000000001190 <register_tm_clones>:
    1190:	48 8d 3d c1 2e 00 00 	lea    rdi,[rip+0x2ec1]        # 4058 <__TMC_END__>
    1197:	48 8d 35 ba 2e 00 00 	lea    rsi,[rip+0x2eba]        # 4058 <__TMC_END__>
    119e:	48 29 fe             	sub    rsi,rdi
    11a1:	48 89 f0             	mov    rax,rsi
    11a4:	48 c1 ee 3f          	shr    rsi,0x3f
    11a8:	48 c1 f8 03          	sar    rax,0x3
    11ac:	48 01 c6             	add    rsi,rax
    11af:	48 d1 fe             	sar    rsi,1
    11b2:	74 14                	je     11c8 <register_tm_clones+0x38>
    11b4:	48 8b 05 3d 2e 00 00 	mov    rax,QWORD PTR [rip+0x2e3d]        # 3ff8 <_ITM_registerTMCloneTable@Base>
    11bb:	48 85 c0             	test   rax,rax
    11be:	74 08                	je     11c8 <register_tm_clones+0x38>
    11c0:	ff e0                	jmp    rax
    11c2:	66 0f 1f 44 00 00    	nop    WORD PTR [rax+rax*1+0x0]
    11c8:	c3                   	ret
    11c9:	0f 1f 80 00 00 00 00 	nop    DWORD PTR [rax+0x0]

00000000000011d0 <__do_global_dtors_aux>:
    11d0:	f3 0f 1e fa          	endbr64
    11d4:	80 3d b5 2f 00 00 00 	cmp    BYTE PTR [rip+0x2fb5],0x0        # 4190 <completed.0>
    11db:	75 2b                	jne    1208 <__do_global_dtors_aux+0x38>
    11dd:	55                   	push   rbp
    11de:	48 83 3d ea 2d 00 00 	cmp    QWORD PTR [rip+0x2dea],0x0        # 3fd0 <__cxa_finalize@GLIBC_2.2.5>
    11e5:	00 
    11e6:	48 89 e5             	mov    rbp,rsp
    11e9:	74 0c                	je     11f7 <__do_global_dtors_aux+0x27>
    11eb:	48 8b 3d 16 2e 00 00 	mov    rdi,QWORD PTR [rip+0x2e16]        # 4008 <__dso_handle>
    11f2:	e8 c9 fe ff ff       	call   10c0 <__cxa_finalize@plt>
    11f7:	e8 64 ff ff ff       	call   1160 <deregister_tm_clones>
    11fc:	c6 05 8d 2f 00 00 01 	mov    BYTE PTR [rip+0x2f8d],0x1        # 4190 <completed.0>
    1203:	5d                   	pop    rbp
    1204:	c3                   	ret
    1205:	0f 1f 00             	nop    DWORD PTR [rax]
    1208:	c3                   	ret
    1209:	0f 1f 80 00 00 00 00 	nop    DWORD PTR [rax+0x0]

0000000000001210 <frame_dummy>:
    1210:	f3 0f 1e fa          	endbr64
    1214:	e9 77 ff ff ff       	jmp    1190 <register_tm_clones>
    1219:	0f 1f 80 00 00 00 00 	nop    DWORD PTR [rax+0x0]

0000000000001220 <_Z14CompareVCOMISSv>:
    1220:	f3 0f 1e fa          	endbr64
    1224:	41 55                	push   r13
    1226:	ba 1c 00 00 00       	mov    edx,0x1c
    122b:	48 8d 35 e2 0d 00 00 	lea    rsi,[rip+0xde2]        # 2014 <_IO_stdin_used+0x14>
    1232:	41 54                	push   r12
    1234:	55                   	push   rbp
    1235:	53                   	push   rbx
    1236:	48 8d 1d 43 2e 00 00 	lea    rbx,[rip+0x2e43]        # 4080 <_ZSt4cout@GLIBCXX_3.4>
    123d:	48 89 df             	mov    rdi,rbx
    1240:	48 83 ec 68          	sub    rsp,0x68
    1244:	0f 28 05 25 0e 00 00 	movaps xmm0,XMMWORD PTR [rip+0xe25]        # 2070 <_IO_stdin_used+0x70>
    124b:	64 48 8b 04 25 28 00 	mov    rax,QWORD PTR fs:0x28
    1252:	00 00 
    1254:	48 89 44 24 58       	mov    QWORD PTR [rsp+0x58],rax
    1259:	31 c0                	xor    eax,eax
    125b:	48 8b 05 8e 0e 00 00 	mov    rax,QWORD PTR [rip+0xe8e]        # 20f0 <_IO_stdin_used+0xf0>
    1262:	0f 29 44 24 20       	movaps XMMWORD PTR [rsp+0x20],xmm0
    1267:	0f 28 05 12 0e 00 00 	movaps xmm0,XMMWORD PTR [rip+0xe12]        # 2080 <_IO_stdin_used+0x80>
    126e:	48 89 44 24 30       	mov    QWORD PTR [rsp+0x30],rax
    1273:	48 8b 05 7e 0e 00 00 	mov    rax,QWORD PTR [rip+0xe7e]        # 20f8 <_IO_stdin_used+0xf8>
    127a:	0f 29 44 24 40       	movaps XMMWORD PTR [rsp+0x40],xmm0
    127f:	48 89 44 24 50       	mov    QWORD PTR [rsp+0x50],rax
    1284:	e8 e7 fd ff ff       	call   1070 <_ZSt16__ostream_insertIcSt11char_traitsIcEERSt13basic_ostreamIT_T0_ES6_PKS3_l@plt>
    1289:	48 8b 15 18 2f 00 00 	mov    rdx,QWORD PTR [rip+0x2f18]        # 41a8 <_ZL8g_Dashes+0x8>
    1290:	48 8b 35 09 2f 00 00 	mov    rsi,QWORD PTR [rip+0x2f09]        # 41a0 <_ZL8g_Dashes>
    1297:	48 89 df             	mov    rdi,rbx
    129a:	e8 d1 fd ff ff       	call   1070 <_ZSt16__ostream_insertIcSt11char_traitsIcEERSt13basic_ostreamIT_T0_ES6_PKS3_l@plt>
    129f:	c6 44 24 18 0a       	mov    BYTE PTR [rsp+0x18],0xa
    12a4:	48 89 c7             	mov    rdi,rax
    12a7:	48 8b 00             	mov    rax,QWORD PTR [rax]
    12aa:	48 8b 40 e8          	mov    rax,QWORD PTR [rax-0x18]
    12ae:	48 83 7c 07 10 00    	cmp    QWORD PTR [rdi+rax*1+0x10],0x0
    12b4:	0f 84 86 00 00 00    	je     1340 <_Z14CompareVCOMISSv+0x120>
    12ba:	48 8d 74 24 18       	lea    rsi,[rsp+0x18]
    12bf:	ba 01 00 00 00       	mov    edx,0x1
    12c4:	e8 a7 fd ff ff       	call   1070 <_ZSt16__ostream_insertIcSt11char_traitsIcEERSt13basic_ostreamIT_T0_ES6_PKS3_l@plt>
    12c9:	31 db                	xor    ebx,ebx
    12cb:	4c 8d 6c 24 40       	lea    r13,[rsp+0x40]
    12d0:	4c 8d 64 24 20       	lea    r12,[rsp+0x20]
    12d5:	48 8d 6c 24 19       	lea    rbp,[rsp+0x19]
    12da:	66 0f 1f 44 00 00    	nop    WORD PTR [rax+rax*1+0x0]
    12e0:	f3 41 0f 10 4c 9d 00 	movss  xmm1,DWORD PTR [r13+rbx*4+0x0]
    12e7:	f3 41 0f 10 04 9c    	movss  xmm0,DWORD PTR [r12+rbx*4]
    12ed:	48 89 ef             	mov    rdi,rbp
    12f0:	48 83 c3 01          	add    rbx,0x1
    12f4:	f3 0f 11 4c 24 0c    	movss  DWORD PTR [rsp+0xc],xmm1
    12fa:	f3 0f 11 44 24 08    	movss  DWORD PTR [rsp+0x8],xmm0
    1300:	e8 0b 06 00 00       	call   1910 <CompareVCOMISS_>
    1305:	f3 0f 10 4c 24 0c    	movss  xmm1,DWORD PTR [rsp+0xc]
    130b:	f3 0f 10 44 24 08    	movss  xmm0,DWORD PTR [rsp+0x8]
    1311:	48 89 ef             	mov    rdi,rbp
    1314:	e8 a7 01 00 00       	call   14c0 <_Z12PrintResultsIfEvT_S0_PKb>
    1319:	48 83 fb 06          	cmp    rbx,0x6
    131d:	75 c1                	jne    12e0 <_Z14CompareVCOMISSv+0xc0>
    131f:	48 8b 44 24 58       	mov    rax,QWORD PTR [rsp+0x58]
    1324:	64 48 2b 04 25 28 00 	sub    rax,QWORD PTR fs:0x28
    132b:	00 00 
    132d:	75 20                	jne    134f <_Z14CompareVCOMISSv+0x12f>
    132f:	48 83 c4 68          	add    rsp,0x68
    1333:	5b                   	pop    rbx
    1334:	5d                   	pop    rbp
    1335:	41 5c                	pop    r12
    1337:	41 5d                	pop    r13
    1339:	c3                   	ret
    133a:	66 0f 1f 44 00 00    	nop    WORD PTR [rax+rax*1+0x0]
    1340:	be 0a 00 00 00       	mov    esi,0xa
    1345:	e8 e6 fc ff ff       	call   1030 <_ZNSo3putEc@plt>
    134a:	e9 7a ff ff ff       	jmp    12c9 <_Z14CompareVCOMISSv+0xa9>
    134f:	e8 0c fd ff ff       	call   1060 <__stack_chk_fail@plt>
    1354:	66 66 2e 0f 1f 84 00 	data16 cs nop WORD PTR [rax+rax*1+0x0]
    135b:	00 00 00 00 
    135f:	90                   	nop

0000000000001360 <_Z14CompareVCOMISDv>:
    1360:	f3 0f 1e fa          	endbr64
    1364:	41 55                	push   r13
    1366:	ba 1c 00 00 00       	mov    edx,0x1c
    136b:	48 8d 35 bf 0c 00 00 	lea    rsi,[rip+0xcbf]        # 2031 <_IO_stdin_used+0x31>
    1372:	41 54                	push   r12
    1374:	55                   	push   rbp
    1375:	53                   	push   rbx
    1376:	48 8d 1d 03 2d 00 00 	lea    rbx,[rip+0x2d03]        # 4080 <_ZSt4cout@GLIBCXX_3.4>
    137d:	48 89 df             	mov    rdi,rbx
    1380:	48 81 ec 98 00 00 00 	sub    rsp,0x98
    1387:	66 0f 28 05 01 0d 00 	movapd xmm0,XMMWORD PTR [rip+0xd01]        # 2090 <_IO_stdin_used+0x90>
    138e:	00 
    138f:	64 48 8b 04 25 28 00 	mov    rax,QWORD PTR fs:0x28
    1396:	00 00 
    1398:	48 89 84 24 88 00 00 	mov    QWORD PTR [rsp+0x88],rax
    139f:	00 
    13a0:	31 c0                	xor    eax,eax
    13a2:	0f 29 44 24 20       	movaps XMMWORD PTR [rsp+0x20],xmm0
    13a7:	66 0f 28 05 f1 0c 00 	movapd xmm0,XMMWORD PTR [rip+0xcf1]        # 20a0 <_IO_stdin_used+0xa0>
    13ae:	00 
    13af:	0f 29 44 24 30       	movaps XMMWORD PTR [rsp+0x30],xmm0
    13b4:	66 0f 28 05 f4 0c 00 	movapd xmm0,XMMWORD PTR [rip+0xcf4]        # 20b0 <_IO_stdin_used+0xb0>
    13bb:	00 
    13bc:	0f 29 44 24 40       	movaps XMMWORD PTR [rsp+0x40],xmm0
    13c1:	66 0f 28 05 f7 0c 00 	movapd xmm0,XMMWORD PTR [rip+0xcf7]        # 20c0 <_IO_stdin_used+0xc0>
    13c8:	00 
    13c9:	0f 29 44 24 50       	movaps XMMWORD PTR [rsp+0x50],xmm0
    13ce:	66 0f 28 05 fa 0c 00 	movapd xmm0,XMMWORD PTR [rip+0xcfa]        # 20d0 <_IO_stdin_used+0xd0>
    13d5:	00 
    13d6:	0f 29 44 24 60       	movaps XMMWORD PTR [rsp+0x60],xmm0
    13db:	66 0f 28 05 fd 0c 00 	movapd xmm0,XMMWORD PTR [rip+0xcfd]        # 20e0 <_IO_stdin_used+0xe0>
    13e2:	00 
    13e3:	0f 29 44 24 70       	movaps XMMWORD PTR [rsp+0x70],xmm0
    13e8:	e8 83 fc ff ff       	call   1070 <_ZSt16__ostream_insertIcSt11char_traitsIcEERSt13basic_ostreamIT_T0_ES6_PKS3_l@plt>
    13ed:	48 8b 15 b4 2d 00 00 	mov    rdx,QWORD PTR [rip+0x2db4]        # 41a8 <_ZL8g_Dashes+0x8>
    13f4:	48 8b 35 a5 2d 00 00 	mov    rsi,QWORD PTR [rip+0x2da5]        # 41a0 <_ZL8g_Dashes>
    13fb:	48 89 df             	mov    rdi,rbx
    13fe:	e8 6d fc ff ff       	call   1070 <_ZSt16__ostream_insertIcSt11char_traitsIcEERSt13basic_ostreamIT_T0_ES6_PKS3_l@plt>
    1403:	c6 44 24 18 0a       	mov    BYTE PTR [rsp+0x18],0xa
    1408:	48 89 c7             	mov    rdi,rax
    140b:	48 8b 00             	mov    rax,QWORD PTR [rax]
    140e:	48 8b 40 e8          	mov    rax,QWORD PTR [rax-0x18]
    1412:	48 83 7c 07 10 00    	cmp    QWORD PTR [rdi+rax*1+0x10],0x0
    1418:	0f 84 82 00 00 00    	je     14a0 <_Z14CompareVCOMISDv+0x140>
    141e:	48 8d 74 24 18       	lea    rsi,[rsp+0x18]
    1423:	ba 01 00 00 00       	mov    edx,0x1
    1428:	e8 43 fc ff ff       	call   1070 <_ZSt16__ostream_insertIcSt11char_traitsIcEERSt13basic_ostreamIT_T0_ES6_PKS3_l@plt>
    142d:	31 db                	xor    ebx,ebx
    142f:	4c 8d 6c 24 50       	lea    r13,[rsp+0x50]
    1434:	4c 8d 64 24 20       	lea    r12,[rsp+0x20]
    1439:	48 8d 6c 24 19       	lea    rbp,[rsp+0x19]
    143e:	66 90                	xchg   ax,ax
    1440:	f2 41 0f 10 4c dd 00 	movsd  xmm1,QWORD PTR [r13+rbx*8+0x0]
    1447:	f2 41 0f 10 04 dc    	movsd  xmm0,QWORD PTR [r12+rbx*8]
    144d:	48 89 ef             	mov    rdi,rbp
    1450:	48 83 c3 01          	add    rbx,0x1
    1454:	f2 0f 11 4c 24 08    	movsd  QWORD PTR [rsp+0x8],xmm1
    145a:	f2 0f 11 04 24       	movsd  QWORD PTR [rsp],xmm0
    145f:	e8 b7 04 00 00       	call   191b <CompareVCOMISD_>
    1464:	f2 0f 10 4c 24 08    	movsd  xmm1,QWORD PTR [rsp+0x8]
    146a:	f2 0f 10 04 24       	movsd  xmm0,QWORD PTR [rsp]
    146f:	48 89 ef             	mov    rdi,rbp
    1472:	e8 79 02 00 00       	call   16f0 <_Z12PrintResultsIdEvT_S0_PKb>
    1477:	48 83 fb 06          	cmp    rbx,0x6
    147b:	75 c3                	jne    1440 <_Z14CompareVCOMISDv+0xe0>
    147d:	48 8b 84 24 88 00 00 	mov    rax,QWORD PTR [rsp+0x88]
    1484:	00 
    1485:	64 48 2b 04 25 28 00 	sub    rax,QWORD PTR fs:0x28
    148c:	00 00 
    148e:	75 1c                	jne    14ac <_Z14CompareVCOMISDv+0x14c>
    1490:	48 81 c4 98 00 00 00 	add    rsp,0x98
    1497:	5b                   	pop    rbx
    1498:	5d                   	pop    rbp
    1499:	41 5c                	pop    r12
    149b:	41 5d                	pop    r13
    149d:	c3                   	ret
    149e:	66 90                	xchg   ax,ax
    14a0:	be 0a 00 00 00       	mov    esi,0xa
    14a5:	e8 86 fb ff ff       	call   1030 <_ZNSo3putEc@plt>
    14aa:	eb 81                	jmp    142d <_Z14CompareVCOMISDv+0xcd>
    14ac:	e8 af fb ff ff       	call   1060 <__stack_chk_fail@plt>
    14b1:	66 2e 0f 1f 84 00 00 	cs nop WORD PTR [rax+rax*1+0x0]
    14b8:	00 00 00 
    14bb:	0f 1f 44 00 00       	nop    DWORD PTR [rax+rax*1+0x0]

00000000000014c0 <_Z12PrintResultsIfEvT_S0_PKb>:
    14c0:	f3 0f 1e fa          	endbr64
    14c4:	41 57                	push   r15
    14c6:	ba 04 00 00 00       	mov    edx,0x4
    14cb:	48 8d 35 32 0b 00 00 	lea    rsi,[rip+0xb32]        # 2004 <_IO_stdin_used+0x4>
    14d2:	41 56                	push   r14
    14d4:	41 55                	push   r13
    14d6:	41 54                	push   r12
    14d8:	49 89 fc             	mov    r12,rdi
    14db:	55                   	push   rbp
    14dc:	53                   	push   rbx
    14dd:	48 8d 1d 9c 2b 00 00 	lea    rbx,[rip+0x2b9c]        # 4080 <_ZSt4cout@GLIBCXX_3.4>
    14e4:	48 89 df             	mov    rdi,rbx
    14e7:	48 83 ec 28          	sub    rsp,0x28
    14eb:	f3 0f 11 4c 24 08    	movss  DWORD PTR [rsp+0x8],xmm1
    14f1:	f3 0f 11 44 24 0c    	movss  DWORD PTR [rsp+0xc],xmm0
    14f7:	64 48 8b 04 25 28 00 	mov    rax,QWORD PTR fs:0x28
    14fe:	00 00 
    1500:	48 89 44 24 18       	mov    QWORD PTR [rsp+0x18],rax
    1505:	31 c0                	xor    eax,eax
    1507:	e8 64 fb ff ff       	call   1070 <_ZSt16__ostream_insertIcSt11char_traitsIcEERSt13basic_ostreamIT_T0_ES6_PKS3_l@plt>
    150c:	f3 0f 10 44 24 0c    	movss  xmm0,DWORD PTR [rsp+0xc]
    1512:	48 89 df             	mov    rdi,rbx
    1515:	f3 0f 5a c0          	cvtss2sd xmm0,xmm0
    1519:	e8 72 fb ff ff       	call   1090 <_ZNSo9_M_insertIdEERSoT_@plt>
    151e:	ba 02 00 00 00       	mov    edx,0x2
    1523:	48 8d 35 df 0a 00 00 	lea    rsi,[rip+0xadf]        # 2009 <_IO_stdin_used+0x9>
    152a:	48 89 c7             	mov    rdi,rax
    152d:	e8 3e fb ff ff       	call   1070 <_ZSt16__ostream_insertIcSt11char_traitsIcEERSt13basic_ostreamIT_T0_ES6_PKS3_l@plt>
    1532:	ba 04 00 00 00       	mov    edx,0x4
    1537:	48 8d 35 ce 0a 00 00 	lea    rsi,[rip+0xace]        # 200c <_IO_stdin_used+0xc>
    153e:	48 89 df             	mov    rdi,rbx
    1541:	e8 2a fb ff ff       	call   1070 <_ZSt16__ostream_insertIcSt11char_traitsIcEERSt13basic_ostreamIT_T0_ES6_PKS3_l@plt>
    1546:	f3 0f 10 4c 24 08    	movss  xmm1,DWORD PTR [rsp+0x8]
    154c:	48 89 df             	mov    rdi,rbx
    154f:	66 0f ef c0          	pxor   xmm0,xmm0
    1553:	f3 0f 5a c1          	cvtss2sd xmm0,xmm1
    1557:	e8 34 fb ff ff       	call   1090 <_ZNSo9_M_insertIdEERSoT_@plt>
    155c:	c6 44 24 17 0a       	mov    BYTE PTR [rsp+0x17],0xa
    1561:	48 89 c7             	mov    rdi,rax
    1564:	48 8b 00             	mov    rax,QWORD PTR [rax]
    1567:	48 8b 40 e8          	mov    rax,QWORD PTR [rax-0x18]
    156b:	48 83 7c 07 10 00    	cmp    QWORD PTR [rdi+rax*1+0x10],0x0
    1571:	0f 84 59 01 00 00    	je     16d0 <_Z12PrintResultsIfEvT_S0_PKb+0x210>
    1577:	48 8d 74 24 17       	lea    rsi,[rsp+0x17]
    157c:	ba 01 00 00 00       	mov    edx,0x1
    1581:	e8 ea fa ff ff       	call   1070 <_ZSt16__ostream_insertIcSt11char_traitsIcEERSt13basic_ostreamIT_T0_ES6_PKS3_l@plt>
    1586:	48 8d 2d 93 2a 00 00 	lea    rbp,[rip+0x2a93]        # 4020 <c_OpStrings>
    158d:	4c 8d 74 24 17       	lea    r14,[rsp+0x17]
    1592:	4c 8d 6d 38          	lea    r13,[rbp+0x38]
    1596:	eb 73                	jmp    160b <_Z12PrintResultsIfEvT_S0_PKb+0x14b>
    1598:	0f 1f 84 00 00 00 00 	nop    DWORD PTR [rax+rax*1+0x0]
    159f:	00 
    15a0:	ba 01 00 00 00       	mov    edx,0x1
    15a5:	4c 89 f6             	mov    rsi,r14
    15a8:	48 89 df             	mov    rdi,rbx
    15ab:	e8 c0 fa ff ff       	call   1070 <_ZSt16__ostream_insertIcSt11char_traitsIcEERSt13basic_ostreamIT_T0_ES6_PKS3_l@plt>
    15b0:	48 8b 03             	mov    rax,QWORD PTR [rbx]
    15b3:	41 0f b6 34 24       	movzx  esi,BYTE PTR [r12]
    15b8:	48 89 df             	mov    rdi,rbx
    15bb:	48 8b 50 e8          	mov    rdx,QWORD PTR [rax-0x18]
    15bf:	48 01 da             	add    rdx,rbx
    15c2:	8b 42 18             	mov    eax,DWORD PTR [rdx+0x18]
    15c5:	48 c7 42 10 06 00 00 	mov    QWORD PTR [rdx+0x10],0x6
    15cc:	00 
    15cd:	24 4f                	and    al,0x4f
    15cf:	83 c8 21             	or     eax,0x21
    15d2:	89 42 18             	mov    DWORD PTR [rdx+0x18],eax
    15d5:	e8 c6 fa ff ff       	call   10a0 <_ZNSo9_M_insertIbEERSoT_@plt>
    15da:	c6 44 24 17 20       	mov    BYTE PTR [rsp+0x17],0x20
    15df:	48 89 c7             	mov    rdi,rax
    15e2:	48 8b 00             	mov    rax,QWORD PTR [rax]
    15e5:	48 8b 40 e8          	mov    rax,QWORD PTR [rax-0x18]
    15e9:	48 83 7c 07 10 00    	cmp    QWORD PTR [rdi+rax*1+0x10],0x0
    15ef:	74 6f                	je     1660 <_Z12PrintResultsIfEvT_S0_PKb+0x1a0>
    15f1:	ba 01 00 00 00       	mov    edx,0x1
    15f6:	4c 89 f6             	mov    rsi,r14
    15f9:	48 83 c5 08          	add    rbp,0x8
    15fd:	49 83 c4 01          	add    r12,0x1
    1601:	e8 6a fa ff ff       	call   1070 <_ZSt16__ostream_insertIcSt11char_traitsIcEERSt13basic_ostreamIT_T0_ES6_PKS3_l@plt>
    1606:	49 39 ed             	cmp    r13,rbp
    1609:	74 6c                	je     1677 <_Z12PrintResultsIfEvT_S0_PKb+0x1b7>
    160b:	4c 8b 7d 00          	mov    r15,QWORD PTR [rbp+0x0]
    160f:	4d 85 ff             	test   r15,r15
    1612:	0f 84 98 00 00 00    	je     16b0 <_Z12PrintResultsIfEvT_S0_PKb+0x1f0>
    1618:	4c 89 ff             	mov    rdi,r15
    161b:	e8 20 fa ff ff       	call   1040 <strlen@plt>
    1620:	4c 89 fe             	mov    rsi,r15
    1623:	48 89 df             	mov    rdi,rbx
    1626:	48 89 c2             	mov    rdx,rax
    1629:	e8 42 fa ff ff       	call   1070 <_ZSt16__ostream_insertIcSt11char_traitsIcEERSt13basic_ostreamIT_T0_ES6_PKS3_l@plt>
    162e:	48 8b 03             	mov    rax,QWORD PTR [rbx]
    1631:	c6 44 24 17 3d       	mov    BYTE PTR [rsp+0x17],0x3d
    1636:	48 8b 40 e8          	mov    rax,QWORD PTR [rax-0x18]
    163a:	48 83 7c 03 10 00    	cmp    QWORD PTR [rbx+rax*1+0x10],0x0
    1640:	0f 85 5a ff ff ff    	jne    15a0 <_Z12PrintResultsIfEvT_S0_PKb+0xe0>
    1646:	be 3d 00 00 00       	mov    esi,0x3d
    164b:	48 89 df             	mov    rdi,rbx
    164e:	e8 dd f9 ff ff       	call   1030 <_ZNSo3putEc@plt>
    1653:	e9 58 ff ff ff       	jmp    15b0 <_Z12PrintResultsIfEvT_S0_PKb+0xf0>
    1658:	0f 1f 84 00 00 00 00 	nop    DWORD PTR [rax+rax*1+0x0]
    165f:	00 
    1660:	be 20 00 00 00       	mov    esi,0x20
    1665:	48 83 c5 08          	add    rbp,0x8
    1669:	49 83 c4 01          	add    r12,0x1
    166d:	e8 be f9 ff ff       	call   1030 <_ZNSo3putEc@plt>
    1672:	49 39 ed             	cmp    r13,rbp
    1675:	75 94                	jne    160b <_Z12PrintResultsIfEvT_S0_PKb+0x14b>
    1677:	48 8b 44 24 18       	mov    rax,QWORD PTR [rsp+0x18]
    167c:	64 48 2b 04 25 28 00 	sub    rax,QWORD PTR fs:0x28
    1683:	00 00 
    1685:	75 58                	jne    16df <_Z12PrintResultsIfEvT_S0_PKb+0x21f>
    1687:	48 83 c4 28          	add    rsp,0x28
    168b:	48 89 df             	mov    rdi,rbx
    168e:	ba 02 00 00 00       	mov    edx,0x2
    1693:	5b                   	pop    rbx
    1694:	48 8d 35 76 09 00 00 	lea    rsi,[rip+0x976]        # 2011 <_IO_stdin_used+0x11>
    169b:	5d                   	pop    rbp
    169c:	41 5c                	pop    r12
    169e:	41 5d                	pop    r13
    16a0:	41 5e                	pop    r14
    16a2:	41 5f                	pop    r15
    16a4:	e9 c7 f9 ff ff       	jmp    1070 <_ZSt16__ostream_insertIcSt11char_traitsIcEERSt13basic_ostreamIT_T0_ES6_PKS3_l@plt>
    16a9:	0f 1f 80 00 00 00 00 	nop    DWORD PTR [rax+0x0]
    16b0:	48 8b 03             	mov    rax,QWORD PTR [rbx]
    16b3:	48 8b 78 e8          	mov    rdi,QWORD PTR [rax-0x18]
    16b7:	48 01 df             	add    rdi,rbx
    16ba:	8b 77 20             	mov    esi,DWORD PTR [rdi+0x20]
    16bd:	83 ce 01             	or     esi,0x1
    16c0:	e8 eb f9 ff ff       	call   10b0 <_ZNSt9basic_iosIcSt11char_traitsIcEE5clearESt12_Ios_Iostate@plt>
    16c5:	e9 64 ff ff ff       	jmp    162e <_Z12PrintResultsIfEvT_S0_PKb+0x16e>
    16ca:	66 0f 1f 44 00 00    	nop    WORD PTR [rax+rax*1+0x0]
    16d0:	be 0a 00 00 00       	mov    esi,0xa
    16d5:	e8 56 f9 ff ff       	call   1030 <_ZNSo3putEc@plt>
    16da:	e9 a7 fe ff ff       	jmp    1586 <_Z12PrintResultsIfEvT_S0_PKb+0xc6>
    16df:	e8 7c f9 ff ff       	call   1060 <__stack_chk_fail@plt>
    16e4:	66 2e 0f 1f 84 00 00 	cs nop WORD PTR [rax+rax*1+0x0]
    16eb:	00 00 00 
    16ee:	66 90                	xchg   ax,ax

00000000000016f0 <_Z12PrintResultsIdEvT_S0_PKb>:
    16f0:	f3 0f 1e fa          	endbr64
    16f4:	41 57                	push   r15
    16f6:	ba 04 00 00 00       	mov    edx,0x4
    16fb:	48 8d 35 02 09 00 00 	lea    rsi,[rip+0x902]        # 2004 <_IO_stdin_used+0x4>
    1702:	41 56                	push   r14
    1704:	41 55                	push   r13
    1706:	41 54                	push   r12
    1708:	49 89 fc             	mov    r12,rdi
    170b:	55                   	push   rbp
    170c:	66 48 0f 7e cd       	movq   rbp,xmm1
    1711:	53                   	push   rbx
    1712:	48 8d 1d 67 29 00 00 	lea    rbx,[rip+0x2967]        # 4080 <_ZSt4cout@GLIBCXX_3.4>
    1719:	48 89 df             	mov    rdi,rbx
    171c:	48 83 ec 28          	sub    rsp,0x28
    1720:	f2 0f 11 44 24 08    	movsd  QWORD PTR [rsp+0x8],xmm0
    1726:	64 48 8b 04 25 28 00 	mov    rax,QWORD PTR fs:0x28
    172d:	00 00 
    172f:	48 89 44 24 18       	mov    QWORD PTR [rsp+0x18],rax
    1734:	31 c0                	xor    eax,eax
    1736:	e8 35 f9 ff ff       	call   1070 <_ZSt16__ostream_insertIcSt11char_traitsIcEERSt13basic_ostreamIT_T0_ES6_PKS3_l@plt>
    173b:	f2 0f 10 44 24 08    	movsd  xmm0,QWORD PTR [rsp+0x8]
    1741:	48 89 df             	mov    rdi,rbx
    1744:	e8 47 f9 ff ff       	call   1090 <_ZNSo9_M_insertIdEERSoT_@plt>
    1749:	ba 02 00 00 00       	mov    edx,0x2
    174e:	48 8d 35 b4 08 00 00 	lea    rsi,[rip+0x8b4]        # 2009 <_IO_stdin_used+0x9>
    1755:	48 89 c7             	mov    rdi,rax
    1758:	e8 13 f9 ff ff       	call   1070 <_ZSt16__ostream_insertIcSt11char_traitsIcEERSt13basic_ostreamIT_T0_ES6_PKS3_l@plt>
    175d:	ba 04 00 00 00       	mov    edx,0x4
    1762:	48 8d 35 a3 08 00 00 	lea    rsi,[rip+0x8a3]        # 200c <_IO_stdin_used+0xc>
    1769:	48 89 df             	mov    rdi,rbx
    176c:	e8 ff f8 ff ff       	call   1070 <_ZSt16__ostream_insertIcSt11char_traitsIcEERSt13basic_ostreamIT_T0_ES6_PKS3_l@plt>
    1771:	48 89 df             	mov    rdi,rbx
    1774:	66 48 0f 6e c5       	movq   xmm0,rbp
    1779:	e8 12 f9 ff ff       	call   1090 <_ZNSo9_M_insertIdEERSoT_@plt>
    177e:	c6 44 24 17 0a       	mov    BYTE PTR [rsp+0x17],0xa
    1783:	48 89 c7             	mov    rdi,rax
    1786:	48 8b 00             	mov    rax,QWORD PTR [rax]
    1789:	48 8b 40 e8          	mov    rax,QWORD PTR [rax-0x18]
    178d:	48 83 7c 07 10 00    	cmp    QWORD PTR [rdi+rax*1+0x10],0x0
    1793:	0f 84 57 01 00 00    	je     18f0 <_Z12PrintResultsIdEvT_S0_PKb+0x200>
    1799:	48 8d 74 24 17       	lea    rsi,[rsp+0x17]
    179e:	ba 01 00 00 00       	mov    edx,0x1
    17a3:	e8 c8 f8 ff ff       	call   1070 <_ZSt16__ostream_insertIcSt11char_traitsIcEERSt13basic_ostreamIT_T0_ES6_PKS3_l@plt>
    17a8:	48 8d 2d 71 28 00 00 	lea    rbp,[rip+0x2871]        # 4020 <c_OpStrings>
    17af:	4c 8d 74 24 17       	lea    r14,[rsp+0x17]
    17b4:	4c 8d 6d 38          	lea    r13,[rbp+0x38]
    17b8:	eb 71                	jmp    182b <_Z12PrintResultsIdEvT_S0_PKb+0x13b>
    17ba:	66 0f 1f 44 00 00    	nop    WORD PTR [rax+rax*1+0x0]
    17c0:	ba 01 00 00 00       	mov    edx,0x1
    17c5:	4c 89 f6             	mov    rsi,r14
    17c8:	48 89 df             	mov    rdi,rbx
    17cb:	e8 a0 f8 ff ff       	call   1070 <_ZSt16__ostream_insertIcSt11char_traitsIcEERSt13basic_ostreamIT_T0_ES6_PKS3_l@plt>
    17d0:	48 8b 03             	mov    rax,QWORD PTR [rbx]
    17d3:	41 0f b6 34 24       	movzx  esi,BYTE PTR [r12]
    17d8:	48 89 df             	mov    rdi,rbx
    17db:	48 8b 50 e8          	mov    rdx,QWORD PTR [rax-0x18]
    17df:	48 01 da             	add    rdx,rbx
    17e2:	8b 42 18             	mov    eax,DWORD PTR [rdx+0x18]
    17e5:	48 c7 42 10 06 00 00 	mov    QWORD PTR [rdx+0x10],0x6
    17ec:	00 
    17ed:	24 4f                	and    al,0x4f
    17ef:	83 c8 21             	or     eax,0x21
    17f2:	89 42 18             	mov    DWORD PTR [rdx+0x18],eax
    17f5:	e8 a6 f8 ff ff       	call   10a0 <_ZNSo9_M_insertIbEERSoT_@plt>
    17fa:	c6 44 24 17 20       	mov    BYTE PTR [rsp+0x17],0x20
    17ff:	48 89 c7             	mov    rdi,rax
    1802:	48 8b 00             	mov    rax,QWORD PTR [rax]
    1805:	48 8b 40 e8          	mov    rax,QWORD PTR [rax-0x18]
    1809:	48 83 7c 07 10 00    	cmp    QWORD PTR [rdi+rax*1+0x10],0x0
    180f:	74 6f                	je     1880 <_Z12PrintResultsIdEvT_S0_PKb+0x190>
    1811:	ba 01 00 00 00       	mov    edx,0x1
    1816:	4c 89 f6             	mov    rsi,r14
    1819:	48 83 c5 08          	add    rbp,0x8
    181d:	49 83 c4 01          	add    r12,0x1
    1821:	e8 4a f8 ff ff       	call   1070 <_ZSt16__ostream_insertIcSt11char_traitsIcEERSt13basic_ostreamIT_T0_ES6_PKS3_l@plt>
    1826:	49 39 ed             	cmp    r13,rbp
    1829:	74 6c                	je     1897 <_Z12PrintResultsIdEvT_S0_PKb+0x1a7>
    182b:	4c 8b 7d 00          	mov    r15,QWORD PTR [rbp+0x0]
    182f:	4d 85 ff             	test   r15,r15
    1832:	0f 84 98 00 00 00    	je     18d0 <_Z12PrintResultsIdEvT_S0_PKb+0x1e0>
    1838:	4c 89 ff             	mov    rdi,r15
    183b:	e8 00 f8 ff ff       	call   1040 <strlen@plt>
    1840:	4c 89 fe             	mov    rsi,r15
    1843:	48 89 df             	mov    rdi,rbx
    1846:	48 89 c2             	mov    rdx,rax
    1849:	e8 22 f8 ff ff       	call   1070 <_ZSt16__ostream_insertIcSt11char_traitsIcEERSt13basic_ostreamIT_T0_ES6_PKS3_l@plt>
    184e:	48 8b 03             	mov    rax,QWORD PTR [rbx]
    1851:	c6 44 24 17 3d       	mov    BYTE PTR [rsp+0x17],0x3d
    1856:	48 8b 40 e8          	mov    rax,QWORD PTR [rax-0x18]
    185a:	48 83 7c 03 10 00    	cmp    QWORD PTR [rbx+rax*1+0x10],0x0
    1860:	0f 85 5a ff ff ff    	jne    17c0 <_Z12PrintResultsIdEvT_S0_PKb+0xd0>
    1866:	be 3d 00 00 00       	mov    esi,0x3d
    186b:	48 89 df             	mov    rdi,rbx
    186e:	e8 bd f7 ff ff       	call   1030 <_ZNSo3putEc@plt>
    1873:	e9 58 ff ff ff       	jmp    17d0 <_Z12PrintResultsIdEvT_S0_PKb+0xe0>
    1878:	0f 1f 84 00 00 00 00 	nop    DWORD PTR [rax+rax*1+0x0]
    187f:	00 
    1880:	be 20 00 00 00       	mov    esi,0x20
    1885:	48 83 c5 08          	add    rbp,0x8
    1889:	49 83 c4 01          	add    r12,0x1
    188d:	e8 9e f7 ff ff       	call   1030 <_ZNSo3putEc@plt>
    1892:	49 39 ed             	cmp    r13,rbp
    1895:	75 94                	jne    182b <_Z12PrintResultsIdEvT_S0_PKb+0x13b>
    1897:	48 8b 44 24 18       	mov    rax,QWORD PTR [rsp+0x18]
    189c:	64 48 2b 04 25 28 00 	sub    rax,QWORD PTR fs:0x28
    18a3:	00 00 
    18a5:	75 58                	jne    18ff <_Z12PrintResultsIdEvT_S0_PKb+0x20f>
    18a7:	48 83 c4 28          	add    rsp,0x28
    18ab:	48 89 df             	mov    rdi,rbx
    18ae:	ba 02 00 00 00       	mov    edx,0x2
    18b3:	5b                   	pop    rbx
    18b4:	48 8d 35 56 07 00 00 	lea    rsi,[rip+0x756]        # 2011 <_IO_stdin_used+0x11>
    18bb:	5d                   	pop    rbp
    18bc:	41 5c                	pop    r12
    18be:	41 5d                	pop    r13
    18c0:	41 5e                	pop    r14
    18c2:	41 5f                	pop    r15
    18c4:	e9 a7 f7 ff ff       	jmp    1070 <_ZSt16__ostream_insertIcSt11char_traitsIcEERSt13basic_ostreamIT_T0_ES6_PKS3_l@plt>
    18c9:	0f 1f 80 00 00 00 00 	nop    DWORD PTR [rax+0x0]
    18d0:	48 8b 03             	mov    rax,QWORD PTR [rbx]
    18d3:	48 8b 78 e8          	mov    rdi,QWORD PTR [rax-0x18]
    18d7:	48 01 df             	add    rdi,rbx
    18da:	8b 77 20             	mov    esi,DWORD PTR [rdi+0x20]
    18dd:	83 ce 01             	or     esi,0x1
    18e0:	e8 cb f7 ff ff       	call   10b0 <_ZNSt9basic_iosIcSt11char_traitsIcEE5clearESt12_Ios_Iostate@plt>
    18e5:	e9 64 ff ff ff       	jmp    184e <_Z12PrintResultsIdEvT_S0_PKb+0x15e>
    18ea:	66 0f 1f 44 00 00    	nop    WORD PTR [rax+rax*1+0x0]
    18f0:	be 0a 00 00 00       	mov    esi,0xa
    18f5:	e8 36 f7 ff ff       	call   1030 <_ZNSo3putEc@plt>
    18fa:	e9 a9 fe ff ff       	jmp    17a8 <_Z12PrintResultsIdEvT_S0_PKb+0xb8>
    18ff:	e8 5c f7 ff ff       	call   1060 <__stack_chk_fail@plt>
    1904:	66 2e 0f 1f 84 00 00 	cs nop WORD PTR [rax+rax*1+0x0]
    190b:	00 00 00 
    190e:	66 90                	xchg   ax,ax

0000000000001910 <CompareVCOMISS_>:
    1910:	c5 f8 2f c1          	vcomiss xmm0,xmm1
    1914:	0f 9a 07             	setp   BYTE PTR [rdi]
    1917:	7b 21                	jnp    193a <FlagStorage>
    1919:	eb 09                	jmp    1924 <Unordered>

000000000000191b <CompareVCOMISD_>:
    191b:	c5 f9 2f c1          	vcomisd xmm0,xmm1
    191f:	0f 9a 07             	setp   BYTE PTR [rdi]
    1922:	7b 16                	jnp    193a <FlagStorage>

0000000000001924 <Unordered>:
    1924:	30 c0                	xor    al,al
    1926:	88 47 01             	mov    BYTE PTR [rdi+0x1],al
    1929:	88 47 02             	mov    BYTE PTR [rdi+0x2],al
    192c:	88 47 03             	mov    BYTE PTR [rdi+0x3],al
    192f:	88 47 04             	mov    BYTE PTR [rdi+0x4],al
    1932:	88 47 05             	mov    BYTE PTR [rdi+0x5],al
    1935:	88 47 06             	mov    BYTE PTR [rdi+0x6],al
    1938:	eb 18                	jmp    1952 <Done>

000000000000193a <FlagStorage>:
    193a:	0f 92 47 01          	setb   BYTE PTR [rdi+0x1]
    193e:	0f 96 47 02          	setbe  BYTE PTR [rdi+0x2]
    1942:	0f 94 47 03          	sete   BYTE PTR [rdi+0x3]
    1946:	0f 95 47 04          	setne  BYTE PTR [rdi+0x4]
    194a:	0f 97 47 05          	seta   BYTE PTR [rdi+0x5]
    194e:	0f 93 47 06          	setae  BYTE PTR [rdi+0x6]

0000000000001952 <Done>:
    1952:	c3                   	ret

Disassembly of section .fini:

0000000000001954 <_fini>:
    1954:	f3 0f 1e fa          	endbr64
    1958:	48 83 ec 08          	sub    rsp,0x8
    195c:	48 83 c4 08          	add    rsp,0x8
    1960:	c3                   	ret
