
L1/main:     file format elf64-x86-64


Disassembly of section .init:

0000000000002000 <_init>:
    2000:	f3 0f 1e fa          	endbr64
    2004:	48 83 ec 08          	sub    rsp,0x8
    2008:	48 8b 05 e1 7f 00 00 	mov    rax,QWORD PTR [rip+0x7fe1]        # 9ff0 <__gmon_start__@Base>
    200f:	48 85 c0             	test   rax,rax
    2012:	74 02                	je     2016 <_init+0x16>
    2014:	ff d0                	call   rax
    2016:	48 83 c4 08          	add    rsp,0x8
    201a:	c3                   	ret

Disassembly of section .plt:

0000000000002020 <_ZNSo3putEc@plt-0x10>:
    2020:	ff 35 2a 7f 00 00    	push   QWORD PTR [rip+0x7f2a]        # 9f50 <_GLOBAL_OFFSET_TABLE_+0x8>
    2026:	ff 25 2c 7f 00 00    	jmp    QWORD PTR [rip+0x7f2c]        # 9f58 <_GLOBAL_OFFSET_TABLE_+0x10>
    202c:	0f 1f 40 00          	nop    DWORD PTR [rax+0x0]

0000000000002030 <_ZNSo3putEc@plt>:
    2030:	ff 25 2a 7f 00 00    	jmp    QWORD PTR [rip+0x7f2a]        # 9f60 <_ZNSo3putEc@GLIBCXX_3.4>
    2036:	68 00 00 00 00       	push   0x0
    203b:	e9 e0 ff ff ff       	jmp    2020 <_init+0x20>

0000000000002040 <_ZNSt7__cxx1119basic_ostringstreamIcSt11char_traitsIcESaIcEED1Ev@plt>:
    2040:	ff 25 22 7f 00 00    	jmp    QWORD PTR [rip+0x7f22]        # 9f68 <_ZNSt7__cxx1119basic_ostringstreamIcSt11char_traitsIcESaIcEED1Ev@GLIBCXX_3.4.21>
    2046:	68 01 00 00 00       	push   0x1
    204b:	e9 d0 ff ff ff       	jmp    2020 <_init+0x20>

0000000000002050 <_ZNSt8ios_baseC2Ev@plt>:
    2050:	ff 25 1a 7f 00 00    	jmp    QWORD PTR [rip+0x7f1a]        # 9f70 <_ZNSt8ios_baseC2Ev@GLIBCXX_3.4>
    2056:	68 02 00 00 00       	push   0x2
    205b:	e9 c0 ff ff ff       	jmp    2020 <_init+0x20>

0000000000002060 <_ZNSt8ios_baseD2Ev@plt>:
    2060:	ff 25 12 7f 00 00    	jmp    QWORD PTR [rip+0x7f12]        # 9f78 <_ZNSt8ios_baseD2Ev@GLIBCXX_3.4>
    2066:	68 03 00 00 00       	push   0x3
    206b:	e9 b0 ff ff ff       	jmp    2020 <_init+0x20>

0000000000002070 <_ZNSt7__cxx1112basic_stringIcSt11char_traitsIcESaIcEE9_M_assignERKS4_@plt>:
    2070:	ff 25 0a 7f 00 00    	jmp    QWORD PTR [rip+0x7f0a]        # 9f80 <_ZNSt7__cxx1112basic_stringIcSt11char_traitsIcESaIcEE9_M_assignERKS4_@GLIBCXX_3.4.21>
    2076:	68 04 00 00 00       	push   0x4
    207b:	e9 a0 ff ff ff       	jmp    2020 <_init+0x20>

0000000000002080 <_ZdlPvm@plt>:
    2080:	ff 25 02 7f 00 00    	jmp    QWORD PTR [rip+0x7f02]        # 9f88 <_ZdlPvm@CXXABI_1.3.9>
    2086:	68 05 00 00 00       	push   0x5
    208b:	e9 90 ff ff ff       	jmp    2020 <_init+0x20>

0000000000002090 <__stack_chk_fail@plt>:
    2090:	ff 25 fa 7e 00 00    	jmp    QWORD PTR [rip+0x7efa]        # 9f90 <__stack_chk_fail@GLIBC_2.4>
    2096:	68 06 00 00 00       	push   0x6
    209b:	e9 80 ff ff ff       	jmp    2020 <_init+0x20>

00000000000020a0 <_ZSt16__ostream_insertIcSt11char_traitsIcEERSt13basic_ostreamIT_T0_ES6_PKS3_l@plt>:
    20a0:	ff 25 f2 7e 00 00    	jmp    QWORD PTR [rip+0x7ef2]        # 9f98 <_ZSt16__ostream_insertIcSt11char_traitsIcEERSt13basic_ostreamIT_T0_ES6_PKS3_l@GLIBCXX_3.4.9>
    20a6:	68 07 00 00 00       	push   0x7
    20ab:	e9 70 ff ff ff       	jmp    2020 <_init+0x20>

00000000000020b0 <_ZNSt7__cxx1112basic_stringIcSt11char_traitsIcESaIcEE10_M_disposeEv@plt>:
    20b0:	ff 25 ea 7e 00 00    	jmp    QWORD PTR [rip+0x7eea]        # 9fa0 <_ZNSt7__cxx1112basic_stringIcSt11char_traitsIcESaIcEE10_M_disposeEv@GLIBCXX_3.4.21>
    20b6:	68 08 00 00 00       	push   0x8
    20bb:	e9 60 ff ff ff       	jmp    2020 <_init+0x20>

00000000000020c0 <_ZNSt9basic_iosIcSt11char_traitsIcEE4initEPSt15basic_streambufIcS1_E@plt>:
    20c0:	ff 25 e2 7e 00 00    	jmp    QWORD PTR [rip+0x7ee2]        # 9fa8 <_ZNSt9basic_iosIcSt11char_traitsIcEE4initEPSt15basic_streambufIcS1_E@GLIBCXX_3.4>
    20c6:	68 09 00 00 00       	push   0x9
    20cb:	e9 50 ff ff ff       	jmp    2020 <_init+0x20>

00000000000020d0 <_ZNSt6localeD1Ev@plt>:
    20d0:	ff 25 da 7e 00 00    	jmp    QWORD PTR [rip+0x7eda]        # 9fb0 <_ZNSt6localeD1Ev@GLIBCXX_3.4>
    20d6:	68 0a 00 00 00       	push   0xa
    20db:	e9 40 ff ff ff       	jmp    2020 <_init+0x20>

00000000000020e0 <_ZNSt7__cxx1112basic_stringIcSt11char_traitsIcESaIcEE10_M_replaceEmmPKcm@plt>:
    20e0:	ff 25 d2 7e 00 00    	jmp    QWORD PTR [rip+0x7ed2]        # 9fb8 <_ZNSt7__cxx1112basic_stringIcSt11char_traitsIcESaIcEE10_M_replaceEmmPKcm@GLIBCXX_3.4.21>
    20e6:	68 0b 00 00 00       	push   0xb
    20eb:	e9 30 ff ff ff       	jmp    2020 <_init+0x20>

00000000000020f0 <_ZNSo9_M_insertIdEERSoT_@plt>:
    20f0:	ff 25 ca 7e 00 00    	jmp    QWORD PTR [rip+0x7eca]        # 9fc0 <_ZNSo9_M_insertIdEERSoT_@GLIBCXX_3.4.9>
    20f6:	68 0c 00 00 00       	push   0xc
    20fb:	e9 20 ff ff ff       	jmp    2020 <_init+0x20>

0000000000002100 <_Unwind_Resume@plt>:
    2100:	ff 25 c2 7e 00 00    	jmp    QWORD PTR [rip+0x7ec2]        # 9fc8 <_Unwind_Resume@GCC_3.0>
    2106:	68 0d 00 00 00       	push   0xd
    210b:	e9 10 ff ff ff       	jmp    2020 <_init+0x20>

0000000000002110 <_ZNSt6localeC1Ev@plt>:
    2110:	ff 25 ba 7e 00 00    	jmp    QWORD PTR [rip+0x7eba]        # 9fd0 <_ZNSt6localeC1Ev@GLIBCXX_3.4>
    2116:	68 0e 00 00 00       	push   0xe
    211b:	e9 00 ff ff ff       	jmp    2020 <_init+0x20>

Disassembly of section .plt.got:

0000000000002120 <__cxa_finalize@plt>:
    2120:	ff 25 b2 7e 00 00    	jmp    QWORD PTR [rip+0x7eb2]        # 9fd8 <__cxa_finalize@GLIBC_2.2.5>
    2126:	66 90                	xchg   ax,ax

Disassembly of section .text:

0000000000002130 <_Z16AvxPackedMathF64v.cold>:
    2130:	48 8b 7c 24 30       	mov    rdi,QWORD PTR [rsp+0x30]
    2135:	e8 76 ff ff ff       	call   20b0 <_ZNSt7__cxx1112basic_stringIcSt11char_traitsIcESaIcEE10_M_disposeEv@plt>
    213a:	48 89 df             	mov    rdi,rbx
    213d:	e8 fe fe ff ff       	call   2040 <_ZNSt7__cxx1119basic_ostringstreamIcSt11char_traitsIcESaIcEED1Ev@plt>
    2142:	48 8b 84 24 88 02 00 	mov    rax,QWORD PTR [rsp+0x288]
    2149:	00 
    214a:	64 48 2b 04 25 28 00 	sub    rax,QWORD PTR fs:0x28
    2151:	00 00 
    2153:	75 2d                	jne    2182 <_Z16AvxPackedMathF64v.cold+0x52>
    2155:	48 89 ef             	mov    rdi,rbp
    2158:	e8 a3 ff ff ff       	call   2100 <_Unwind_Resume@plt>
    215d:	48 8b 7c 24 30       	mov    rdi,QWORD PTR [rsp+0x30]
    2162:	e8 49 ff ff ff       	call   20b0 <_ZNSt7__cxx1112basic_stringIcSt11char_traitsIcESaIcEE10_M_disposeEv@plt>
    2167:	48 8b 84 24 88 02 00 	mov    rax,QWORD PTR [rsp+0x288]
    216e:	00 
    216f:	64 48 2b 04 25 28 00 	sub    rax,QWORD PTR fs:0x28
    2176:	00 00 
    2178:	75 0d                	jne    2187 <_Z16AvxPackedMathF64v.cold+0x57>
    217a:	48 89 df             	mov    rdi,rbx
    217d:	e8 7e ff ff ff       	call   2100 <_Unwind_Resume@plt>
    2182:	e8 09 ff ff ff       	call   2090 <__stack_chk_fail@plt>
    2187:	e8 04 ff ff ff       	call   2090 <__stack_chk_fail@plt>
    218c:	48 8b 7c 24 38       	mov    rdi,QWORD PTR [rsp+0x38]
    2191:	e8 4a 52 00 00       	call   73e0 <_ZNSt7__cxx1115basic_stringbufIcSt11char_traitsIcESaIcEED1Ev>
    2196:	48 8b 45 e8          	mov    rax,QWORD PTR [rbp-0x18]
    219a:	48 8b 0d f7 7a 00 00 	mov    rcx,QWORD PTR [rip+0x7af7]        # 9c98 <_ZTTNSt7__cxx1119basic_ostringstreamIcSt11char_traitsIcESaIcEEE@GLIBCXX_3.4.21+0x10>
    21a1:	48 89 ac 24 10 01 00 	mov    QWORD PTR [rsp+0x110],rbp
    21a8:	00 
    21a9:	48 89 8c 04 10 01 00 	mov    QWORD PTR [rsp+rax*1+0x110],rcx
    21b0:	00 
    21b1:	4c 89 e7             	mov    rdi,r12
    21b4:	4c 89 ac 24 80 01 00 	mov    QWORD PTR [rsp+0x180],r13
    21bb:	00 
    21bc:	e8 9f fe ff ff       	call   2060 <_ZNSt8ios_baseD2Ev@plt>
    21c1:	48 8b 84 24 88 02 00 	mov    rax,QWORD PTR [rsp+0x288]
    21c8:	00 
    21c9:	64 48 2b 04 25 28 00 	sub    rax,QWORD PTR fs:0x28
    21d0:	00 00 
    21d2:	75 58                	jne    222c <_Z16AvxPackedMathF64v.cold+0xfc>
    21d4:	48 89 df             	mov    rdi,rbx
    21d7:	e8 24 ff ff ff       	call   2100 <_Unwind_Resume@plt>
    21dc:	48 8b 7c 24 38       	mov    rdi,QWORD PTR [rsp+0x38]
    21e1:	e8 fa 51 00 00       	call   73e0 <_ZNSt7__cxx1115basic_stringbufIcSt11char_traitsIcESaIcEED1Ev>
    21e6:	48 8b 45 e8          	mov    rax,QWORD PTR [rbp-0x18]
    21ea:	48 8b 0d a7 7a 00 00 	mov    rcx,QWORD PTR [rip+0x7aa7]        # 9c98 <_ZTTNSt7__cxx1119basic_ostringstreamIcSt11char_traitsIcESaIcEEE@GLIBCXX_3.4.21+0x10>
    21f1:	48 89 ac 24 10 01 00 	mov    QWORD PTR [rsp+0x110],rbp
    21f8:	00 
    21f9:	48 89 8c 04 10 01 00 	mov    QWORD PTR [rsp+rax*1+0x110],rcx
    2200:	00 
    2201:	4c 89 e7             	mov    rdi,r12
    2204:	4c 89 ac 24 80 01 00 	mov    QWORD PTR [rsp+0x180],r13
    220b:	00 
    220c:	e8 4f fe ff ff       	call   2060 <_ZNSt8ios_baseD2Ev@plt>
    2211:	48 8b 84 24 88 02 00 	mov    rax,QWORD PTR [rsp+0x288]
    2218:	00 
    2219:	64 48 2b 04 25 28 00 	sub    rax,QWORD PTR fs:0x28
    2220:	00 00 
    2222:	75 0d                	jne    2231 <_Z16AvxPackedMathF64v.cold+0x101>
    2224:	48 89 df             	mov    rdi,rbx
    2227:	e8 d4 fe ff ff       	call   2100 <_Unwind_Resume@plt>
    222c:	e8 5f fe ff ff       	call   2090 <__stack_chk_fail@plt>
    2231:	e8 5a fe ff ff       	call   2090 <__stack_chk_fail@plt>
    2236:	48 8b 7c 24 30       	mov    rdi,QWORD PTR [rsp+0x30]
    223b:	e8 70 fe ff ff       	call   20b0 <_ZNSt7__cxx1112basic_stringIcSt11char_traitsIcESaIcEE10_M_disposeEv@plt>
    2240:	48 89 df             	mov    rdi,rbx
    2243:	e8 f8 fd ff ff       	call   2040 <_ZNSt7__cxx1119basic_ostringstreamIcSt11char_traitsIcESaIcEED1Ev@plt>
    2248:	48 8b 84 24 88 02 00 	mov    rax,QWORD PTR [rsp+0x288]
    224f:	00 
    2250:	64 48 2b 04 25 28 00 	sub    rax,QWORD PTR fs:0x28
    2257:	00 00 
    2259:	75 2d                	jne    2288 <_Z16AvxPackedMathF64v.cold+0x158>
    225b:	48 89 ef             	mov    rdi,rbp
    225e:	e8 9d fe ff ff       	call   2100 <_Unwind_Resume@plt>
    2263:	48 8b 7c 24 30       	mov    rdi,QWORD PTR [rsp+0x30]
    2268:	e8 43 fe ff ff       	call   20b0 <_ZNSt7__cxx1112basic_stringIcSt11char_traitsIcESaIcEE10_M_disposeEv@plt>
    226d:	48 8b 84 24 88 02 00 	mov    rax,QWORD PTR [rsp+0x288]
    2274:	00 
    2275:	64 48 2b 04 25 28 00 	sub    rax,QWORD PTR fs:0x28
    227c:	00 00 
    227e:	75 0d                	jne    228d <_Z16AvxPackedMathF64v.cold+0x15d>
    2280:	48 89 df             	mov    rdi,rbx
    2283:	e8 78 fe ff ff       	call   2100 <_Unwind_Resume@plt>
    2288:	e8 03 fe ff ff       	call   2090 <__stack_chk_fail@plt>
    228d:	e8 fe fd ff ff       	call   2090 <__stack_chk_fail@plt>
    2292:	48 8b 7c 24 38       	mov    rdi,QWORD PTR [rsp+0x38]
    2297:	e8 44 51 00 00       	call   73e0 <_ZNSt7__cxx1115basic_stringbufIcSt11char_traitsIcESaIcEED1Ev>
    229c:	48 8b 45 e8          	mov    rax,QWORD PTR [rbp-0x18]
    22a0:	48 8b 0d f1 79 00 00 	mov    rcx,QWORD PTR [rip+0x79f1]        # 9c98 <_ZTTNSt7__cxx1119basic_ostringstreamIcSt11char_traitsIcESaIcEEE@GLIBCXX_3.4.21+0x10>
    22a7:	48 89 ac 24 10 01 00 	mov    QWORD PTR [rsp+0x110],rbp
    22ae:	00 
    22af:	48 89 8c 04 10 01 00 	mov    QWORD PTR [rsp+rax*1+0x110],rcx
    22b6:	00 
    22b7:	4c 89 e7             	mov    rdi,r12
    22ba:	4c 89 ac 24 80 01 00 	mov    QWORD PTR [rsp+0x180],r13
    22c1:	00 
    22c2:	e8 99 fd ff ff       	call   2060 <_ZNSt8ios_baseD2Ev@plt>
    22c7:	48 8b 84 24 88 02 00 	mov    rax,QWORD PTR [rsp+0x288]
    22ce:	00 
    22cf:	64 48 2b 04 25 28 00 	sub    rax,QWORD PTR fs:0x28
    22d6:	00 00 
    22d8:	75 08                	jne    22e2 <_Z16AvxPackedMathF64v.cold+0x1b2>
    22da:	48 89 df             	mov    rdi,rbx
    22dd:	e8 1e fe ff ff       	call   2100 <_Unwind_Resume@plt>
    22e2:	e8 a9 fd ff ff       	call   2090 <__stack_chk_fail@plt>
    22e7:	48 8b 7c 24 30       	mov    rdi,QWORD PTR [rsp+0x30]
    22ec:	e8 bf fd ff ff       	call   20b0 <_ZNSt7__cxx1112basic_stringIcSt11char_traitsIcESaIcEE10_M_disposeEv@plt>
    22f1:	48 89 df             	mov    rdi,rbx
    22f4:	e8 47 fd ff ff       	call   2040 <_ZNSt7__cxx1119basic_ostringstreamIcSt11char_traitsIcESaIcEED1Ev@plt>
    22f9:	48 8b 84 24 88 02 00 	mov    rax,QWORD PTR [rsp+0x288]
    2300:	00 
    2301:	64 48 2b 04 25 28 00 	sub    rax,QWORD PTR fs:0x28
    2308:	00 00 
    230a:	75 08                	jne    2314 <_Z16AvxPackedMathF64v.cold+0x1e4>
    230c:	48 89 ef             	mov    rdi,rbp
    230f:	e8 ec fd ff ff       	call   2100 <_Unwind_Resume@plt>
    2314:	e8 77 fd ff ff       	call   2090 <__stack_chk_fail@plt>
    2319:	48 8b 7c 24 30       	mov    rdi,QWORD PTR [rsp+0x30]
    231e:	e8 8d fd ff ff       	call   20b0 <_ZNSt7__cxx1112basic_stringIcSt11char_traitsIcESaIcEE10_M_disposeEv@plt>
    2323:	48 8b 84 24 88 02 00 	mov    rax,QWORD PTR [rsp+0x288]
    232a:	00 
    232b:	64 48 2b 04 25 28 00 	sub    rax,QWORD PTR fs:0x28
    2332:	00 00 
    2334:	75 58                	jne    238e <_Z16AvxPackedMathF64v.cold+0x25e>
    2336:	48 89 df             	mov    rdi,rbx
    2339:	e8 c2 fd ff ff       	call   2100 <_Unwind_Resume@plt>
    233e:	48 8b 7c 24 38       	mov    rdi,QWORD PTR [rsp+0x38]
    2343:	e8 98 50 00 00       	call   73e0 <_ZNSt7__cxx1115basic_stringbufIcSt11char_traitsIcESaIcEED1Ev>
    2348:	48 8b 45 e8          	mov    rax,QWORD PTR [rbp-0x18]
    234c:	48 8b 0d 45 79 00 00 	mov    rcx,QWORD PTR [rip+0x7945]        # 9c98 <_ZTTNSt7__cxx1119basic_ostringstreamIcSt11char_traitsIcESaIcEEE@GLIBCXX_3.4.21+0x10>
    2353:	48 89 ac 24 10 01 00 	mov    QWORD PTR [rsp+0x110],rbp
    235a:	00 
    235b:	48 89 8c 04 10 01 00 	mov    QWORD PTR [rsp+rax*1+0x110],rcx
    2362:	00 
    2363:	4c 89 e7             	mov    rdi,r12
    2366:	4c 89 ac 24 80 01 00 	mov    QWORD PTR [rsp+0x180],r13
    236d:	00 
    236e:	e8 ed fc ff ff       	call   2060 <_ZNSt8ios_baseD2Ev@plt>
    2373:	48 8b 84 24 88 02 00 	mov    rax,QWORD PTR [rsp+0x288]
    237a:	00 
    237b:	64 48 2b 04 25 28 00 	sub    rax,QWORD PTR fs:0x28
    2382:	00 00 
    2384:	75 3a                	jne    23c0 <_Z16AvxPackedMathF64v.cold+0x290>
    2386:	48 89 df             	mov    rdi,rbx
    2389:	e8 72 fd ff ff       	call   2100 <_Unwind_Resume@plt>
    238e:	e8 fd fc ff ff       	call   2090 <__stack_chk_fail@plt>
    2393:	48 8b 7c 24 30       	mov    rdi,QWORD PTR [rsp+0x30]
    2398:	e8 13 fd ff ff       	call   20b0 <_ZNSt7__cxx1112basic_stringIcSt11char_traitsIcESaIcEE10_M_disposeEv@plt>
    239d:	48 89 df             	mov    rdi,rbx
    23a0:	e8 9b fc ff ff       	call   2040 <_ZNSt7__cxx1119basic_ostringstreamIcSt11char_traitsIcESaIcEED1Ev@plt>
    23a5:	48 8b 84 24 88 02 00 	mov    rax,QWORD PTR [rsp+0x288]
    23ac:	00 
    23ad:	64 48 2b 04 25 28 00 	sub    rax,QWORD PTR fs:0x28
    23b4:	00 00 
    23b6:	75 0d                	jne    23c5 <_Z16AvxPackedMathF64v.cold+0x295>
    23b8:	48 89 ef             	mov    rdi,rbp
    23bb:	e8 40 fd ff ff       	call   2100 <_Unwind_Resume@plt>
    23c0:	e8 cb fc ff ff       	call   2090 <__stack_chk_fail@plt>
    23c5:	e8 c6 fc ff ff       	call   2090 <__stack_chk_fail@plt>
    23ca:	48 8b 7c 24 30       	mov    rdi,QWORD PTR [rsp+0x30]
    23cf:	e8 dc fc ff ff       	call   20b0 <_ZNSt7__cxx1112basic_stringIcSt11char_traitsIcESaIcEE10_M_disposeEv@plt>
    23d4:	48 8b 84 24 88 02 00 	mov    rax,QWORD PTR [rsp+0x288]
    23db:	00 
    23dc:	64 48 2b 04 25 28 00 	sub    rax,QWORD PTR fs:0x28
    23e3:	00 00 
    23e5:	75 5d                	jne    2444 <_Z16AvxPackedMathF64v.cold+0x314>
    23e7:	48 89 df             	mov    rdi,rbx
    23ea:	e8 11 fd ff ff       	call   2100 <_Unwind_Resume@plt>
    23ef:	48 8b 7c 24 38       	mov    rdi,QWORD PTR [rsp+0x38]
    23f4:	e8 e7 4f 00 00       	call   73e0 <_ZNSt7__cxx1115basic_stringbufIcSt11char_traitsIcESaIcEED1Ev>
    23f9:	48 8b 45 e8          	mov    rax,QWORD PTR [rbp-0x18]
    23fd:	48 8b 0d 94 78 00 00 	mov    rcx,QWORD PTR [rip+0x7894]        # 9c98 <_ZTTNSt7__cxx1119basic_ostringstreamIcSt11char_traitsIcESaIcEEE@GLIBCXX_3.4.21+0x10>
    2404:	48 89 ac 24 10 01 00 	mov    QWORD PTR [rsp+0x110],rbp
    240b:	00 
    240c:	48 89 8c 04 10 01 00 	mov    QWORD PTR [rsp+rax*1+0x110],rcx
    2413:	00 
    2414:	4c 89 e7             	mov    rdi,r12
    2417:	4c 89 ac 24 80 01 00 	mov    QWORD PTR [rsp+0x180],r13
    241e:	00 
    241f:	e8 3c fc ff ff       	call   2060 <_ZNSt8ios_baseD2Ev@plt>
    2424:	48 8b 84 24 88 02 00 	mov    rax,QWORD PTR [rsp+0x288]
    242b:	00 
    242c:	64 48 2b 04 25 28 00 	sub    rax,QWORD PTR fs:0x28
    2433:	00 00 
    2435:	75 08                	jne    243f <_Z16AvxPackedMathF64v.cold+0x30f>
    2437:	48 89 df             	mov    rdi,rbx
    243a:	e8 c1 fc ff ff       	call   2100 <_Unwind_Resume@plt>
    243f:	e8 4c fc ff ff       	call   2090 <__stack_chk_fail@plt>
    2444:	e8 47 fc ff ff       	call   2090 <__stack_chk_fail@plt>
    2449:	48 8b 7c 24 30       	mov    rdi,QWORD PTR [rsp+0x30]
    244e:	e8 5d fc ff ff       	call   20b0 <_ZNSt7__cxx1112basic_stringIcSt11char_traitsIcESaIcEE10_M_disposeEv@plt>
    2453:	48 89 df             	mov    rdi,rbx
    2456:	e8 e5 fb ff ff       	call   2040 <_ZNSt7__cxx1119basic_ostringstreamIcSt11char_traitsIcESaIcEED1Ev@plt>
    245b:	48 8b 84 24 88 02 00 	mov    rax,QWORD PTR [rsp+0x288]
    2462:	00 
    2463:	64 48 2b 04 25 28 00 	sub    rax,QWORD PTR fs:0x28
    246a:	00 00 
    246c:	75 08                	jne    2476 <_Z16AvxPackedMathF64v.cold+0x346>
    246e:	48 89 ef             	mov    rdi,rbp
    2471:	e8 8a fc ff ff       	call   2100 <_Unwind_Resume@plt>
    2476:	e8 15 fc ff ff       	call   2090 <__stack_chk_fail@plt>
    247b:	48 8b 7c 24 30       	mov    rdi,QWORD PTR [rsp+0x30]
    2480:	e8 2b fc ff ff       	call   20b0 <_ZNSt7__cxx1112basic_stringIcSt11char_traitsIcESaIcEE10_M_disposeEv@plt>
    2485:	48 8b 84 24 88 02 00 	mov    rax,QWORD PTR [rsp+0x288]
    248c:	00 
    248d:	64 48 2b 04 25 28 00 	sub    rax,QWORD PTR fs:0x28
    2494:	00 00 
    2496:	75 58                	jne    24f0 <_Z16AvxPackedMathF64v.cold+0x3c0>
    2498:	48 89 df             	mov    rdi,rbx
    249b:	e8 60 fc ff ff       	call   2100 <_Unwind_Resume@plt>
    24a0:	48 8b 7c 24 38       	mov    rdi,QWORD PTR [rsp+0x38]
    24a5:	e8 36 4f 00 00       	call   73e0 <_ZNSt7__cxx1115basic_stringbufIcSt11char_traitsIcESaIcEED1Ev>
    24aa:	48 8b 45 e8          	mov    rax,QWORD PTR [rbp-0x18]
    24ae:	48 8b 0d e3 77 00 00 	mov    rcx,QWORD PTR [rip+0x77e3]        # 9c98 <_ZTTNSt7__cxx1119basic_ostringstreamIcSt11char_traitsIcESaIcEEE@GLIBCXX_3.4.21+0x10>
    24b5:	48 89 ac 24 10 01 00 	mov    QWORD PTR [rsp+0x110],rbp
    24bc:	00 
    24bd:	48 89 8c 04 10 01 00 	mov    QWORD PTR [rsp+rax*1+0x110],rcx
    24c4:	00 
    24c5:	4c 89 e7             	mov    rdi,r12
    24c8:	4c 89 ac 24 80 01 00 	mov    QWORD PTR [rsp+0x180],r13
    24cf:	00 
    24d0:	e8 8b fb ff ff       	call   2060 <_ZNSt8ios_baseD2Ev@plt>
    24d5:	48 8b 84 24 88 02 00 	mov    rax,QWORD PTR [rsp+0x288]
    24dc:	00 
    24dd:	64 48 2b 04 25 28 00 	sub    rax,QWORD PTR fs:0x28
    24e4:	00 00 
    24e6:	75 0d                	jne    24f5 <_Z16AvxPackedMathF64v.cold+0x3c5>
    24e8:	48 89 df             	mov    rdi,rbx
    24eb:	e8 10 fc ff ff       	call   2100 <_Unwind_Resume@plt>
    24f0:	e8 9b fb ff ff       	call   2090 <__stack_chk_fail@plt>
    24f5:	e8 96 fb ff ff       	call   2090 <__stack_chk_fail@plt>
    24fa:	48 8b 7c 24 30       	mov    rdi,QWORD PTR [rsp+0x30]
    24ff:	e8 ac fb ff ff       	call   20b0 <_ZNSt7__cxx1112basic_stringIcSt11char_traitsIcESaIcEE10_M_disposeEv@plt>
    2504:	48 89 df             	mov    rdi,rbx
    2507:	e8 34 fb ff ff       	call   2040 <_ZNSt7__cxx1119basic_ostringstreamIcSt11char_traitsIcESaIcEED1Ev@plt>
    250c:	48 8b 84 24 88 02 00 	mov    rax,QWORD PTR [rsp+0x288]
    2513:	00 
    2514:	64 48 2b 04 25 28 00 	sub    rax,QWORD PTR fs:0x28
    251b:	00 00 
    251d:	75 2d                	jne    254c <_Z16AvxPackedMathF64v.cold+0x41c>
    251f:	48 89 ef             	mov    rdi,rbp
    2522:	e8 d9 fb ff ff       	call   2100 <_Unwind_Resume@plt>
    2527:	48 8b 7c 24 30       	mov    rdi,QWORD PTR [rsp+0x30]
    252c:	e8 7f fb ff ff       	call   20b0 <_ZNSt7__cxx1112basic_stringIcSt11char_traitsIcESaIcEE10_M_disposeEv@plt>
    2531:	48 8b 84 24 88 02 00 	mov    rax,QWORD PTR [rsp+0x288]
    2538:	00 
    2539:	64 48 2b 04 25 28 00 	sub    rax,QWORD PTR fs:0x28
    2540:	00 00 
    2542:	75 0d                	jne    2551 <_Z16AvxPackedMathF64v.cold+0x421>
    2544:	48 89 df             	mov    rdi,rbx
    2547:	e8 b4 fb ff ff       	call   2100 <_Unwind_Resume@plt>
    254c:	e8 3f fb ff ff       	call   2090 <__stack_chk_fail@plt>
    2551:	e8 3a fb ff ff       	call   2090 <__stack_chk_fail@plt>
    2556:	48 8b 7c 24 38       	mov    rdi,QWORD PTR [rsp+0x38]
    255b:	e8 80 4e 00 00       	call   73e0 <_ZNSt7__cxx1115basic_stringbufIcSt11char_traitsIcESaIcEED1Ev>
    2560:	48 8b 45 e8          	mov    rax,QWORD PTR [rbp-0x18]
    2564:	48 8b 0d 2d 77 00 00 	mov    rcx,QWORD PTR [rip+0x772d]        # 9c98 <_ZTTNSt7__cxx1119basic_ostringstreamIcSt11char_traitsIcESaIcEEE@GLIBCXX_3.4.21+0x10>
    256b:	48 89 ac 24 10 01 00 	mov    QWORD PTR [rsp+0x110],rbp
    2572:	00 
    2573:	48 89 8c 04 10 01 00 	mov    QWORD PTR [rsp+rax*1+0x110],rcx
    257a:	00 
    257b:	4c 89 e7             	mov    rdi,r12
    257e:	4c 89 ac 24 80 01 00 	mov    QWORD PTR [rsp+0x180],r13
    2585:	00 
    2586:	e8 d5 fa ff ff       	call   2060 <_ZNSt8ios_baseD2Ev@plt>
    258b:	48 8b 84 24 88 02 00 	mov    rax,QWORD PTR [rsp+0x288]
    2592:	00 
    2593:	64 48 2b 04 25 28 00 	sub    rax,QWORD PTR fs:0x28
    259a:	00 00 
    259c:	75 08                	jne    25a6 <_Z16AvxPackedMathF64v.cold+0x476>
    259e:	48 89 df             	mov    rdi,rbx
    25a1:	e8 5a fb ff ff       	call   2100 <_Unwind_Resume@plt>
    25a6:	e8 e5 fa ff ff       	call   2090 <__stack_chk_fail@plt>
    25ab:	48 8b 7c 24 30       	mov    rdi,QWORD PTR [rsp+0x30]
    25b0:	e8 fb fa ff ff       	call   20b0 <_ZNSt7__cxx1112basic_stringIcSt11char_traitsIcESaIcEE10_M_disposeEv@plt>
    25b5:	48 89 df             	mov    rdi,rbx
    25b8:	e8 83 fa ff ff       	call   2040 <_ZNSt7__cxx1119basic_ostringstreamIcSt11char_traitsIcESaIcEED1Ev@plt>
    25bd:	48 8b 84 24 88 02 00 	mov    rax,QWORD PTR [rsp+0x288]
    25c4:	00 
    25c5:	64 48 2b 04 25 28 00 	sub    rax,QWORD PTR fs:0x28
    25cc:	00 00 
    25ce:	75 08                	jne    25d8 <_Z16AvxPackedMathF64v.cold+0x4a8>
    25d0:	48 89 ef             	mov    rdi,rbp
    25d3:	e8 28 fb ff ff       	call   2100 <_Unwind_Resume@plt>
    25d8:	e8 b3 fa ff ff       	call   2090 <__stack_chk_fail@plt>
    25dd:	48 8b 7c 24 30       	mov    rdi,QWORD PTR [rsp+0x30]
    25e2:	e8 c9 fa ff ff       	call   20b0 <_ZNSt7__cxx1112basic_stringIcSt11char_traitsIcESaIcEE10_M_disposeEv@plt>
    25e7:	48 8b 84 24 88 02 00 	mov    rax,QWORD PTR [rsp+0x288]
    25ee:	00 
    25ef:	64 48 2b 04 25 28 00 	sub    rax,QWORD PTR fs:0x28
    25f6:	00 00 
    25f8:	75 5c                	jne    2656 <_Z16AvxPackedMathF64v.cold+0x526>
    25fa:	48 89 df             	mov    rdi,rbx
    25fd:	e8 fe fa ff ff       	call   2100 <_Unwind_Resume@plt>
    2602:	48 8b 7c 24 38       	mov    rdi,QWORD PTR [rsp+0x38]
    2607:	e8 d4 4d 00 00       	call   73e0 <_ZNSt7__cxx1115basic_stringbufIcSt11char_traitsIcESaIcEED1Ev>
    260c:	48 8b 45 e8          	mov    rax,QWORD PTR [rbp-0x18]
    2610:	48 8b 0d 81 76 00 00 	mov    rcx,QWORD PTR [rip+0x7681]        # 9c98 <_ZTTNSt7__cxx1119basic_ostringstreamIcSt11char_traitsIcESaIcEEE@GLIBCXX_3.4.21+0x10>
    2617:	48 89 ac 24 10 01 00 	mov    QWORD PTR [rsp+0x110],rbp
    261e:	00 
    261f:	48 89 8c 04 10 01 00 	mov    QWORD PTR [rsp+rax*1+0x110],rcx
    2626:	00 
    2627:	4c 89 e7             	mov    rdi,r12
    262a:	4c 89 ac 24 80 01 00 	mov    QWORD PTR [rsp+0x180],r13
    2631:	00 
    2632:	e8 29 fa ff ff       	call   2060 <_ZNSt8ios_baseD2Ev@plt>
    2637:	48 8b 84 24 88 02 00 	mov    rax,QWORD PTR [rsp+0x288]
    263e:	00 
    263f:	64 48 2b 04 25 28 00 	sub    rax,QWORD PTR fs:0x28
    2646:	00 00 
    2648:	0f 85 71 01 00 00    	jne    27bf <_Z16AvxPackedMathF64v.cold+0x68f>
    264e:	48 89 df             	mov    rdi,rbx
    2651:	e8 aa fa ff ff       	call   2100 <_Unwind_Resume@plt>
    2656:	e8 35 fa ff ff       	call   2090 <__stack_chk_fail@plt>
    265b:	48 8b 7c 24 30       	mov    rdi,QWORD PTR [rsp+0x30]
    2660:	e8 4b fa ff ff       	call   20b0 <_ZNSt7__cxx1112basic_stringIcSt11char_traitsIcESaIcEE10_M_disposeEv@plt>
    2665:	48 89 df             	mov    rdi,rbx
    2668:	e8 d3 f9 ff ff       	call   2040 <_ZNSt7__cxx1119basic_ostringstreamIcSt11char_traitsIcESaIcEED1Ev@plt>
    266d:	48 8b 84 24 88 02 00 	mov    rax,QWORD PTR [rsp+0x288]
    2674:	00 
    2675:	64 48 2b 04 25 28 00 	sub    rax,QWORD PTR fs:0x28
    267c:	00 00 
    267e:	75 08                	jne    2688 <_Z16AvxPackedMathF64v.cold+0x558>
    2680:	48 89 ef             	mov    rdi,rbp
    2683:	e8 78 fa ff ff       	call   2100 <_Unwind_Resume@plt>
    2688:	e8 03 fa ff ff       	call   2090 <__stack_chk_fail@plt>
    268d:	48 8b 7c 24 30       	mov    rdi,QWORD PTR [rsp+0x30]
    2692:	e8 19 fa ff ff       	call   20b0 <_ZNSt7__cxx1112basic_stringIcSt11char_traitsIcESaIcEE10_M_disposeEv@plt>
    2697:	48 8b 84 24 88 02 00 	mov    rax,QWORD PTR [rsp+0x288]
    269e:	00 
    269f:	64 48 2b 04 25 28 00 	sub    rax,QWORD PTR fs:0x28
    26a6:	00 00 
    26a8:	75 58                	jne    2702 <_Z16AvxPackedMathF64v.cold+0x5d2>
    26aa:	48 89 df             	mov    rdi,rbx
    26ad:	e8 4e fa ff ff       	call   2100 <_Unwind_Resume@plt>
    26b2:	48 8b 7c 24 38       	mov    rdi,QWORD PTR [rsp+0x38]
    26b7:	e8 24 4d 00 00       	call   73e0 <_ZNSt7__cxx1115basic_stringbufIcSt11char_traitsIcESaIcEED1Ev>
    26bc:	48 8b 45 e8          	mov    rax,QWORD PTR [rbp-0x18]
    26c0:	48 8b 0d d1 75 00 00 	mov    rcx,QWORD PTR [rip+0x75d1]        # 9c98 <_ZTTNSt7__cxx1119basic_ostringstreamIcSt11char_traitsIcESaIcEEE@GLIBCXX_3.4.21+0x10>
    26c7:	48 89 ac 24 10 01 00 	mov    QWORD PTR [rsp+0x110],rbp
    26ce:	00 
    26cf:	48 89 8c 04 10 01 00 	mov    QWORD PTR [rsp+rax*1+0x110],rcx
    26d6:	00 
    26d7:	4c 89 e7             	mov    rdi,r12
    26da:	4c 89 ac 24 80 01 00 	mov    QWORD PTR [rsp+0x180],r13
    26e1:	00 
    26e2:	e8 79 f9 ff ff       	call   2060 <_ZNSt8ios_baseD2Ev@plt>
    26e7:	48 8b 84 24 88 02 00 	mov    rax,QWORD PTR [rsp+0x288]
    26ee:	00 
    26ef:	64 48 2b 04 25 28 00 	sub    rax,QWORD PTR fs:0x28
    26f6:	00 00 
    26f8:	75 0d                	jne    2707 <_Z16AvxPackedMathF64v.cold+0x5d7>
    26fa:	48 89 df             	mov    rdi,rbx
    26fd:	e8 fe f9 ff ff       	call   2100 <_Unwind_Resume@plt>
    2702:	e8 89 f9 ff ff       	call   2090 <__stack_chk_fail@plt>
    2707:	e8 84 f9 ff ff       	call   2090 <__stack_chk_fail@plt>
    270c:	48 8b 7c 24 30       	mov    rdi,QWORD PTR [rsp+0x30]
    2711:	e8 9a f9 ff ff       	call   20b0 <_ZNSt7__cxx1112basic_stringIcSt11char_traitsIcESaIcEE10_M_disposeEv@plt>
    2716:	48 89 df             	mov    rdi,rbx
    2719:	e8 22 f9 ff ff       	call   2040 <_ZNSt7__cxx1119basic_ostringstreamIcSt11char_traitsIcESaIcEED1Ev@plt>
    271e:	48 8b 84 24 88 02 00 	mov    rax,QWORD PTR [rsp+0x288]
    2725:	00 
    2726:	64 48 2b 04 25 28 00 	sub    rax,QWORD PTR fs:0x28
    272d:	00 00 
    272f:	75 2d                	jne    275e <_Z16AvxPackedMathF64v.cold+0x62e>
    2731:	48 89 ef             	mov    rdi,rbp
    2734:	e8 c7 f9 ff ff       	call   2100 <_Unwind_Resume@plt>
    2739:	48 8b 7c 24 30       	mov    rdi,QWORD PTR [rsp+0x30]
    273e:	e8 6d f9 ff ff       	call   20b0 <_ZNSt7__cxx1112basic_stringIcSt11char_traitsIcESaIcEE10_M_disposeEv@plt>
    2743:	48 8b 84 24 88 02 00 	mov    rax,QWORD PTR [rsp+0x288]
    274a:	00 
    274b:	64 48 2b 04 25 28 00 	sub    rax,QWORD PTR fs:0x28
    2752:	00 00 
    2754:	75 0d                	jne    2763 <_Z16AvxPackedMathF64v.cold+0x633>
    2756:	48 89 df             	mov    rdi,rbx
    2759:	e8 a2 f9 ff ff       	call   2100 <_Unwind_Resume@plt>
    275e:	e8 2d f9 ff ff       	call   2090 <__stack_chk_fail@plt>
    2763:	e8 28 f9 ff ff       	call   2090 <__stack_chk_fail@plt>
    2768:	48 8b 7c 24 30       	mov    rdi,QWORD PTR [rsp+0x30]
    276d:	e8 3e f9 ff ff       	call   20b0 <_ZNSt7__cxx1112basic_stringIcSt11char_traitsIcESaIcEE10_M_disposeEv@plt>
    2772:	48 89 df             	mov    rdi,rbx
    2775:	e8 c6 f8 ff ff       	call   2040 <_ZNSt7__cxx1119basic_ostringstreamIcSt11char_traitsIcESaIcEED1Ev@plt>
    277a:	48 8b 84 24 88 02 00 	mov    rax,QWORD PTR [rsp+0x288]
    2781:	00 
    2782:	64 48 2b 04 25 28 00 	sub    rax,QWORD PTR fs:0x28
    2789:	00 00 
    278b:	75 2d                	jne    27ba <_Z16AvxPackedMathF64v.cold+0x68a>
    278d:	48 89 ef             	mov    rdi,rbp
    2790:	e8 6b f9 ff ff       	call   2100 <_Unwind_Resume@plt>
    2795:	48 8b 7c 24 30       	mov    rdi,QWORD PTR [rsp+0x30]
    279a:	e8 11 f9 ff ff       	call   20b0 <_ZNSt7__cxx1112basic_stringIcSt11char_traitsIcESaIcEE10_M_disposeEv@plt>
    279f:	48 8b 84 24 88 02 00 	mov    rax,QWORD PTR [rsp+0x288]
    27a6:	00 
    27a7:	64 48 2b 04 25 28 00 	sub    rax,QWORD PTR fs:0x28
    27ae:	00 00 
    27b0:	75 67                	jne    2819 <_Z16AvxPackedMathF64v.cold+0x6e9>
    27b2:	48 89 df             	mov    rdi,rbx
    27b5:	e8 46 f9 ff ff       	call   2100 <_Unwind_Resume@plt>
    27ba:	e8 d1 f8 ff ff       	call   2090 <__stack_chk_fail@plt>
    27bf:	e8 cc f8 ff ff       	call   2090 <__stack_chk_fail@plt>
    27c4:	48 8b 7c 24 38       	mov    rdi,QWORD PTR [rsp+0x38]
    27c9:	e8 12 4c 00 00       	call   73e0 <_ZNSt7__cxx1115basic_stringbufIcSt11char_traitsIcESaIcEED1Ev>
    27ce:	48 8b 45 e8          	mov    rax,QWORD PTR [rbp-0x18]
    27d2:	48 8b 0d bf 74 00 00 	mov    rcx,QWORD PTR [rip+0x74bf]        # 9c98 <_ZTTNSt7__cxx1119basic_ostringstreamIcSt11char_traitsIcESaIcEEE@GLIBCXX_3.4.21+0x10>
    27d9:	48 89 ac 24 10 01 00 	mov    QWORD PTR [rsp+0x110],rbp
    27e0:	00 
    27e1:	48 89 8c 04 10 01 00 	mov    QWORD PTR [rsp+rax*1+0x110],rcx
    27e8:	00 
    27e9:	4c 89 e7             	mov    rdi,r12
    27ec:	4c 89 ac 24 80 01 00 	mov    QWORD PTR [rsp+0x180],r13
    27f3:	00 
    27f4:	e8 67 f8 ff ff       	call   2060 <_ZNSt8ios_baseD2Ev@plt>
    27f9:	48 8b 84 24 88 02 00 	mov    rax,QWORD PTR [rsp+0x288]
    2800:	00 
    2801:	64 48 2b 04 25 28 00 	sub    rax,QWORD PTR fs:0x28
    2808:	00 00 
    280a:	75 08                	jne    2814 <_Z16AvxPackedMathF64v.cold+0x6e4>
    280c:	48 89 df             	mov    rdi,rbx
    280f:	e8 ec f8 ff ff       	call   2100 <_Unwind_Resume@plt>
    2814:	e8 77 f8 ff ff       	call   2090 <__stack_chk_fail@plt>
    2819:	e8 72 f8 ff ff       	call   2090 <__stack_chk_fail@plt>

000000000000281e <_Z16AvxPackedMathF32v.cold>:
    281e:	48 8b 7c 24 48       	mov    rdi,QWORD PTR [rsp+0x48]
    2823:	e8 88 f8 ff ff       	call   20b0 <_ZNSt7__cxx1112basic_stringIcSt11char_traitsIcESaIcEE10_M_disposeEv@plt>
    2828:	48 89 df             	mov    rdi,rbx
    282b:	e8 10 f8 ff ff       	call   2040 <_ZNSt7__cxx1119basic_ostringstreamIcSt11char_traitsIcESaIcEED1Ev@plt>
    2830:	48 8b 84 24 a8 02 00 	mov    rax,QWORD PTR [rsp+0x2a8]
    2837:	00 
    2838:	64 48 2b 04 25 28 00 	sub    rax,QWORD PTR fs:0x28
    283f:	00 00 
    2841:	75 2d                	jne    2870 <_Z16AvxPackedMathF32v.cold+0x52>
    2843:	48 89 ef             	mov    rdi,rbp
    2846:	e8 b5 f8 ff ff       	call   2100 <_Unwind_Resume@plt>
    284b:	48 8b 7c 24 48       	mov    rdi,QWORD PTR [rsp+0x48]
    2850:	e8 5b f8 ff ff       	call   20b0 <_ZNSt7__cxx1112basic_stringIcSt11char_traitsIcESaIcEE10_M_disposeEv@plt>
    2855:	48 8b 84 24 a8 02 00 	mov    rax,QWORD PTR [rsp+0x2a8]
    285c:	00 
    285d:	64 48 2b 04 25 28 00 	sub    rax,QWORD PTR fs:0x28
    2864:	00 00 
    2866:	75 0d                	jne    2875 <_Z16AvxPackedMathF32v.cold+0x57>
    2868:	48 89 df             	mov    rdi,rbx
    286b:	e8 90 f8 ff ff       	call   2100 <_Unwind_Resume@plt>
    2870:	e8 1b f8 ff ff       	call   2090 <__stack_chk_fail@plt>
    2875:	e8 16 f8 ff ff       	call   2090 <__stack_chk_fail@plt>
    287a:	48 8b 7c 24 50       	mov    rdi,QWORD PTR [rsp+0x50]
    287f:	e8 5c 4b 00 00       	call   73e0 <_ZNSt7__cxx1115basic_stringbufIcSt11char_traitsIcESaIcEED1Ev>
    2884:	49 8b 47 e8          	mov    rax,QWORD PTR [r15-0x18]
    2888:	48 8b 0d 09 74 00 00 	mov    rcx,QWORD PTR [rip+0x7409]        # 9c98 <_ZTTNSt7__cxx1119basic_ostringstreamIcSt11char_traitsIcESaIcEEE@GLIBCXX_3.4.21+0x10>
    288f:	4c 89 bc 24 30 01 00 	mov    QWORD PTR [rsp+0x130],r15
    2896:	00 
    2897:	48 89 8c 04 30 01 00 	mov    QWORD PTR [rsp+rax*1+0x130],rcx
    289e:	00 
    289f:	48 8b 7c 24 08       	mov    rdi,QWORD PTR [rsp+0x8]
    28a4:	48 8d 05 fd 72 00 00 	lea    rax,[rip+0x72fd]        # 9ba8 <_ZTVSt9basic_iosIcSt11char_traitsIcEE@GLIBCXX_3.4+0x10>
    28ab:	48 89 84 24 a0 01 00 	mov    QWORD PTR [rsp+0x1a0],rax
    28b2:	00 
    28b3:	e8 a8 f7 ff ff       	call   2060 <_ZNSt8ios_baseD2Ev@plt>
    28b8:	48 8b 84 24 a8 02 00 	mov    rax,QWORD PTR [rsp+0x2a8]
    28bf:	00 
    28c0:	64 48 2b 04 25 28 00 	sub    rax,QWORD PTR fs:0x28
    28c7:	00 00 
    28c9:	75 61                	jne    292c <_Z16AvxPackedMathF32v.cold+0x10e>
    28cb:	48 89 df             	mov    rdi,rbx
    28ce:	e8 2d f8 ff ff       	call   2100 <_Unwind_Resume@plt>
    28d3:	48 8b 7c 24 50       	mov    rdi,QWORD PTR [rsp+0x50]
    28d8:	e8 03 4b 00 00       	call   73e0 <_ZNSt7__cxx1115basic_stringbufIcSt11char_traitsIcESaIcEED1Ev>
    28dd:	49 8b 47 e8          	mov    rax,QWORD PTR [r15-0x18]
    28e1:	48 8b 0d b0 73 00 00 	mov    rcx,QWORD PTR [rip+0x73b0]        # 9c98 <_ZTTNSt7__cxx1119basic_ostringstreamIcSt11char_traitsIcESaIcEEE@GLIBCXX_3.4.21+0x10>
    28e8:	4c 89 bc 24 30 01 00 	mov    QWORD PTR [rsp+0x130],r15
    28ef:	00 
    28f0:	48 89 8c 04 30 01 00 	mov    QWORD PTR [rsp+rax*1+0x130],rcx
    28f7:	00 
    28f8:	48 8b 7c 24 08       	mov    rdi,QWORD PTR [rsp+0x8]
    28fd:	48 8d 05 a4 72 00 00 	lea    rax,[rip+0x72a4]        # 9ba8 <_ZTVSt9basic_iosIcSt11char_traitsIcEE@GLIBCXX_3.4+0x10>
    2904:	48 89 84 24 a0 01 00 	mov    QWORD PTR [rsp+0x1a0],rax
    290b:	00 
    290c:	e8 4f f7 ff ff       	call   2060 <_ZNSt8ios_baseD2Ev@plt>
    2911:	48 8b 84 24 a8 02 00 	mov    rax,QWORD PTR [rsp+0x2a8]
    2918:	00 
    2919:	64 48 2b 04 25 28 00 	sub    rax,QWORD PTR fs:0x28
    2920:	00 00 
    2922:	75 0d                	jne    2931 <_Z16AvxPackedMathF32v.cold+0x113>
    2924:	48 89 df             	mov    rdi,rbx
    2927:	e8 d4 f7 ff ff       	call   2100 <_Unwind_Resume@plt>
    292c:	e8 5f f7 ff ff       	call   2090 <__stack_chk_fail@plt>
    2931:	e8 5a f7 ff ff       	call   2090 <__stack_chk_fail@plt>
    2936:	48 8b 7c 24 48       	mov    rdi,QWORD PTR [rsp+0x48]
    293b:	e8 70 f7 ff ff       	call   20b0 <_ZNSt7__cxx1112basic_stringIcSt11char_traitsIcESaIcEE10_M_disposeEv@plt>
    2940:	48 89 df             	mov    rdi,rbx
    2943:	e8 f8 f6 ff ff       	call   2040 <_ZNSt7__cxx1119basic_ostringstreamIcSt11char_traitsIcESaIcEED1Ev@plt>
    2948:	48 8b 84 24 a8 02 00 	mov    rax,QWORD PTR [rsp+0x2a8]
    294f:	00 
    2950:	64 48 2b 04 25 28 00 	sub    rax,QWORD PTR fs:0x28
    2957:	00 00 
    2959:	75 2d                	jne    2988 <_Z16AvxPackedMathF32v.cold+0x16a>
    295b:	48 89 ef             	mov    rdi,rbp
    295e:	e8 9d f7 ff ff       	call   2100 <_Unwind_Resume@plt>
    2963:	48 8b 7c 24 48       	mov    rdi,QWORD PTR [rsp+0x48]
    2968:	e8 43 f7 ff ff       	call   20b0 <_ZNSt7__cxx1112basic_stringIcSt11char_traitsIcESaIcEE10_M_disposeEv@plt>
    296d:	48 8b 84 24 a8 02 00 	mov    rax,QWORD PTR [rsp+0x2a8]
    2974:	00 
    2975:	64 48 2b 04 25 28 00 	sub    rax,QWORD PTR fs:0x28
    297c:	00 00 
    297e:	75 0d                	jne    298d <_Z16AvxPackedMathF32v.cold+0x16f>
    2980:	48 89 df             	mov    rdi,rbx
    2983:	e8 78 f7 ff ff       	call   2100 <_Unwind_Resume@plt>
    2988:	e8 03 f7 ff ff       	call   2090 <__stack_chk_fail@plt>
    298d:	e8 fe f6 ff ff       	call   2090 <__stack_chk_fail@plt>
    2992:	48 8b 7c 24 50       	mov    rdi,QWORD PTR [rsp+0x50]
    2997:	e8 44 4a 00 00       	call   73e0 <_ZNSt7__cxx1115basic_stringbufIcSt11char_traitsIcESaIcEED1Ev>
    299c:	49 8b 47 e8          	mov    rax,QWORD PTR [r15-0x18]
    29a0:	48 8b 0d f1 72 00 00 	mov    rcx,QWORD PTR [rip+0x72f1]        # 9c98 <_ZTTNSt7__cxx1119basic_ostringstreamIcSt11char_traitsIcESaIcEEE@GLIBCXX_3.4.21+0x10>
    29a7:	4c 89 bc 24 30 01 00 	mov    QWORD PTR [rsp+0x130],r15
    29ae:	00 
    29af:	48 89 8c 04 30 01 00 	mov    QWORD PTR [rsp+rax*1+0x130],rcx
    29b6:	00 
    29b7:	48 8b 7c 24 08       	mov    rdi,QWORD PTR [rsp+0x8]
    29bc:	48 8d 05 e5 71 00 00 	lea    rax,[rip+0x71e5]        # 9ba8 <_ZTVSt9basic_iosIcSt11char_traitsIcEE@GLIBCXX_3.4+0x10>
    29c3:	48 89 84 24 a0 01 00 	mov    QWORD PTR [rsp+0x1a0],rax
    29ca:	00 
    29cb:	e8 90 f6 ff ff       	call   2060 <_ZNSt8ios_baseD2Ev@plt>
    29d0:	48 8b 84 24 a8 02 00 	mov    rax,QWORD PTR [rsp+0x2a8]
    29d7:	00 
    29d8:	64 48 2b 04 25 28 00 	sub    rax,QWORD PTR fs:0x28
    29df:	00 00 
    29e1:	75 08                	jne    29eb <_Z16AvxPackedMathF32v.cold+0x1cd>
    29e3:	48 89 df             	mov    rdi,rbx
    29e6:	e8 15 f7 ff ff       	call   2100 <_Unwind_Resume@plt>
    29eb:	e8 a0 f6 ff ff       	call   2090 <__stack_chk_fail@plt>
    29f0:	48 8b 7c 24 48       	mov    rdi,QWORD PTR [rsp+0x48]
    29f5:	e8 b6 f6 ff ff       	call   20b0 <_ZNSt7__cxx1112basic_stringIcSt11char_traitsIcESaIcEE10_M_disposeEv@plt>
    29fa:	48 89 df             	mov    rdi,rbx
    29fd:	e8 3e f6 ff ff       	call   2040 <_ZNSt7__cxx1119basic_ostringstreamIcSt11char_traitsIcESaIcEED1Ev@plt>
    2a02:	48 8b 84 24 a8 02 00 	mov    rax,QWORD PTR [rsp+0x2a8]
    2a09:	00 
    2a0a:	64 48 2b 04 25 28 00 	sub    rax,QWORD PTR fs:0x28
    2a11:	00 00 
    2a13:	75 08                	jne    2a1d <_Z16AvxPackedMathF32v.cold+0x1ff>
    2a15:	48 89 ef             	mov    rdi,rbp
    2a18:	e8 e3 f6 ff ff       	call   2100 <_Unwind_Resume@plt>
    2a1d:	e8 6e f6 ff ff       	call   2090 <__stack_chk_fail@plt>
    2a22:	48 8b 7c 24 48       	mov    rdi,QWORD PTR [rsp+0x48]
    2a27:	e8 84 f6 ff ff       	call   20b0 <_ZNSt7__cxx1112basic_stringIcSt11char_traitsIcESaIcEE10_M_disposeEv@plt>
    2a2c:	48 8b 84 24 a8 02 00 	mov    rax,QWORD PTR [rsp+0x2a8]
    2a33:	00 
    2a34:	64 48 2b 04 25 28 00 	sub    rax,QWORD PTR fs:0x28
    2a3b:	00 00 
    2a3d:	75 61                	jne    2aa0 <_Z16AvxPackedMathF32v.cold+0x282>
    2a3f:	48 89 df             	mov    rdi,rbx
    2a42:	e8 b9 f6 ff ff       	call   2100 <_Unwind_Resume@plt>
    2a47:	48 8b 7c 24 50       	mov    rdi,QWORD PTR [rsp+0x50]
    2a4c:	e8 8f 49 00 00       	call   73e0 <_ZNSt7__cxx1115basic_stringbufIcSt11char_traitsIcESaIcEED1Ev>
    2a51:	49 8b 47 e8          	mov    rax,QWORD PTR [r15-0x18]
    2a55:	48 8b 0d 3c 72 00 00 	mov    rcx,QWORD PTR [rip+0x723c]        # 9c98 <_ZTTNSt7__cxx1119basic_ostringstreamIcSt11char_traitsIcESaIcEEE@GLIBCXX_3.4.21+0x10>
    2a5c:	4c 89 bc 24 30 01 00 	mov    QWORD PTR [rsp+0x130],r15
    2a63:	00 
    2a64:	48 89 8c 04 30 01 00 	mov    QWORD PTR [rsp+rax*1+0x130],rcx
    2a6b:	00 
    2a6c:	48 8b 7c 24 08       	mov    rdi,QWORD PTR [rsp+0x8]
    2a71:	48 8d 05 30 71 00 00 	lea    rax,[rip+0x7130]        # 9ba8 <_ZTVSt9basic_iosIcSt11char_traitsIcEE@GLIBCXX_3.4+0x10>
    2a78:	48 89 84 24 a0 01 00 	mov    QWORD PTR [rsp+0x1a0],rax
    2a7f:	00 
    2a80:	e8 db f5 ff ff       	call   2060 <_ZNSt8ios_baseD2Ev@plt>
    2a85:	48 8b 84 24 a8 02 00 	mov    rax,QWORD PTR [rsp+0x2a8]
    2a8c:	00 
    2a8d:	64 48 2b 04 25 28 00 	sub    rax,QWORD PTR fs:0x28
    2a94:	00 00 
    2a96:	75 3a                	jne    2ad2 <_Z16AvxPackedMathF32v.cold+0x2b4>
    2a98:	48 89 df             	mov    rdi,rbx
    2a9b:	e8 60 f6 ff ff       	call   2100 <_Unwind_Resume@plt>
    2aa0:	e8 eb f5 ff ff       	call   2090 <__stack_chk_fail@plt>
    2aa5:	48 8b 7c 24 48       	mov    rdi,QWORD PTR [rsp+0x48]
    2aaa:	e8 01 f6 ff ff       	call   20b0 <_ZNSt7__cxx1112basic_stringIcSt11char_traitsIcESaIcEE10_M_disposeEv@plt>
    2aaf:	48 89 df             	mov    rdi,rbx
    2ab2:	e8 89 f5 ff ff       	call   2040 <_ZNSt7__cxx1119basic_ostringstreamIcSt11char_traitsIcESaIcEED1Ev@plt>
    2ab7:	48 8b 84 24 a8 02 00 	mov    rax,QWORD PTR [rsp+0x2a8]
    2abe:	00 
    2abf:	64 48 2b 04 25 28 00 	sub    rax,QWORD PTR fs:0x28
    2ac6:	00 00 
    2ac8:	75 0d                	jne    2ad7 <_Z16AvxPackedMathF32v.cold+0x2b9>
    2aca:	48 89 ef             	mov    rdi,rbp
    2acd:	e8 2e f6 ff ff       	call   2100 <_Unwind_Resume@plt>
    2ad2:	e8 b9 f5 ff ff       	call   2090 <__stack_chk_fail@plt>
    2ad7:	e8 b4 f5 ff ff       	call   2090 <__stack_chk_fail@plt>
    2adc:	48 8b 7c 24 48       	mov    rdi,QWORD PTR [rsp+0x48]
    2ae1:	e8 ca f5 ff ff       	call   20b0 <_ZNSt7__cxx1112basic_stringIcSt11char_traitsIcESaIcEE10_M_disposeEv@plt>
    2ae6:	48 8b 84 24 a8 02 00 	mov    rax,QWORD PTR [rsp+0x2a8]
    2aed:	00 
    2aee:	64 48 2b 04 25 28 00 	sub    rax,QWORD PTR fs:0x28
    2af5:	00 00 
    2af7:	75 66                	jne    2b5f <_Z16AvxPackedMathF32v.cold+0x341>
    2af9:	48 89 df             	mov    rdi,rbx
    2afc:	e8 ff f5 ff ff       	call   2100 <_Unwind_Resume@plt>
    2b01:	48 8b 7c 24 50       	mov    rdi,QWORD PTR [rsp+0x50]
    2b06:	e8 d5 48 00 00       	call   73e0 <_ZNSt7__cxx1115basic_stringbufIcSt11char_traitsIcESaIcEED1Ev>
    2b0b:	49 8b 47 e8          	mov    rax,QWORD PTR [r15-0x18]
    2b0f:	48 8b 0d 82 71 00 00 	mov    rcx,QWORD PTR [rip+0x7182]        # 9c98 <_ZTTNSt7__cxx1119basic_ostringstreamIcSt11char_traitsIcESaIcEEE@GLIBCXX_3.4.21+0x10>
    2b16:	4c 89 bc 24 30 01 00 	mov    QWORD PTR [rsp+0x130],r15
    2b1d:	00 
    2b1e:	48 89 8c 04 30 01 00 	mov    QWORD PTR [rsp+rax*1+0x130],rcx
    2b25:	00 
    2b26:	48 8b 7c 24 08       	mov    rdi,QWORD PTR [rsp+0x8]
    2b2b:	48 8d 05 76 70 00 00 	lea    rax,[rip+0x7076]        # 9ba8 <_ZTVSt9basic_iosIcSt11char_traitsIcEE@GLIBCXX_3.4+0x10>
    2b32:	48 89 84 24 a0 01 00 	mov    QWORD PTR [rsp+0x1a0],rax
    2b39:	00 
    2b3a:	e8 21 f5 ff ff       	call   2060 <_ZNSt8ios_baseD2Ev@plt>
    2b3f:	48 8b 84 24 a8 02 00 	mov    rax,QWORD PTR [rsp+0x2a8]
    2b46:	00 
    2b47:	64 48 2b 04 25 28 00 	sub    rax,QWORD PTR fs:0x28
    2b4e:	00 00 
    2b50:	75 08                	jne    2b5a <_Z16AvxPackedMathF32v.cold+0x33c>
    2b52:	48 89 df             	mov    rdi,rbx
    2b55:	e8 a6 f5 ff ff       	call   2100 <_Unwind_Resume@plt>
    2b5a:	e8 31 f5 ff ff       	call   2090 <__stack_chk_fail@plt>
    2b5f:	e8 2c f5 ff ff       	call   2090 <__stack_chk_fail@plt>
    2b64:	48 8b 7c 24 48       	mov    rdi,QWORD PTR [rsp+0x48]
    2b69:	e8 42 f5 ff ff       	call   20b0 <_ZNSt7__cxx1112basic_stringIcSt11char_traitsIcESaIcEE10_M_disposeEv@plt>
    2b6e:	48 89 df             	mov    rdi,rbx
    2b71:	e8 ca f4 ff ff       	call   2040 <_ZNSt7__cxx1119basic_ostringstreamIcSt11char_traitsIcESaIcEED1Ev@plt>
    2b76:	48 8b 84 24 a8 02 00 	mov    rax,QWORD PTR [rsp+0x2a8]
    2b7d:	00 
    2b7e:	64 48 2b 04 25 28 00 	sub    rax,QWORD PTR fs:0x28
    2b85:	00 00 
    2b87:	75 08                	jne    2b91 <_Z16AvxPackedMathF32v.cold+0x373>
    2b89:	48 89 ef             	mov    rdi,rbp
    2b8c:	e8 6f f5 ff ff       	call   2100 <_Unwind_Resume@plt>
    2b91:	e8 fa f4 ff ff       	call   2090 <__stack_chk_fail@plt>
    2b96:	48 8b 7c 24 48       	mov    rdi,QWORD PTR [rsp+0x48]
    2b9b:	e8 10 f5 ff ff       	call   20b0 <_ZNSt7__cxx1112basic_stringIcSt11char_traitsIcESaIcEE10_M_disposeEv@plt>
    2ba0:	48 8b 84 24 a8 02 00 	mov    rax,QWORD PTR [rsp+0x2a8]
    2ba7:	00 
    2ba8:	64 48 2b 04 25 28 00 	sub    rax,QWORD PTR fs:0x28
    2baf:	00 00 
    2bb1:	75 61                	jne    2c14 <_Z16AvxPackedMathF32v.cold+0x3f6>
    2bb3:	48 89 df             	mov    rdi,rbx
    2bb6:	e8 45 f5 ff ff       	call   2100 <_Unwind_Resume@plt>
    2bbb:	48 8b 7c 24 50       	mov    rdi,QWORD PTR [rsp+0x50]
    2bc0:	e8 1b 48 00 00       	call   73e0 <_ZNSt7__cxx1115basic_stringbufIcSt11char_traitsIcESaIcEED1Ev>
    2bc5:	49 8b 47 e8          	mov    rax,QWORD PTR [r15-0x18]
    2bc9:	48 8b 0d c8 70 00 00 	mov    rcx,QWORD PTR [rip+0x70c8]        # 9c98 <_ZTTNSt7__cxx1119basic_ostringstreamIcSt11char_traitsIcESaIcEEE@GLIBCXX_3.4.21+0x10>
    2bd0:	4c 89 bc 24 30 01 00 	mov    QWORD PTR [rsp+0x130],r15
    2bd7:	00 
    2bd8:	48 89 8c 04 30 01 00 	mov    QWORD PTR [rsp+rax*1+0x130],rcx
    2bdf:	00 
    2be0:	48 8b 7c 24 08       	mov    rdi,QWORD PTR [rsp+0x8]
    2be5:	48 8d 05 bc 6f 00 00 	lea    rax,[rip+0x6fbc]        # 9ba8 <_ZTVSt9basic_iosIcSt11char_traitsIcEE@GLIBCXX_3.4+0x10>
    2bec:	48 89 84 24 a0 01 00 	mov    QWORD PTR [rsp+0x1a0],rax
    2bf3:	00 
    2bf4:	e8 67 f4 ff ff       	call   2060 <_ZNSt8ios_baseD2Ev@plt>
    2bf9:	48 8b 84 24 a8 02 00 	mov    rax,QWORD PTR [rsp+0x2a8]
    2c00:	00 
    2c01:	64 48 2b 04 25 28 00 	sub    rax,QWORD PTR fs:0x28
    2c08:	00 00 
    2c0a:	75 0d                	jne    2c19 <_Z16AvxPackedMathF32v.cold+0x3fb>
    2c0c:	48 89 df             	mov    rdi,rbx
    2c0f:	e8 ec f4 ff ff       	call   2100 <_Unwind_Resume@plt>
    2c14:	e8 77 f4 ff ff       	call   2090 <__stack_chk_fail@plt>
    2c19:	e8 72 f4 ff ff       	call   2090 <__stack_chk_fail@plt>
    2c1e:	48 8b 7c 24 48       	mov    rdi,QWORD PTR [rsp+0x48]
    2c23:	e8 88 f4 ff ff       	call   20b0 <_ZNSt7__cxx1112basic_stringIcSt11char_traitsIcESaIcEE10_M_disposeEv@plt>
    2c28:	48 89 df             	mov    rdi,rbx
    2c2b:	e8 10 f4 ff ff       	call   2040 <_ZNSt7__cxx1119basic_ostringstreamIcSt11char_traitsIcESaIcEED1Ev@plt>
    2c30:	48 8b 84 24 a8 02 00 	mov    rax,QWORD PTR [rsp+0x2a8]
    2c37:	00 
    2c38:	64 48 2b 04 25 28 00 	sub    rax,QWORD PTR fs:0x28
    2c3f:	00 00 
    2c41:	75 2d                	jne    2c70 <_Z16AvxPackedMathF32v.cold+0x452>
    2c43:	48 89 ef             	mov    rdi,rbp
    2c46:	e8 b5 f4 ff ff       	call   2100 <_Unwind_Resume@plt>
    2c4b:	48 8b 7c 24 48       	mov    rdi,QWORD PTR [rsp+0x48]
    2c50:	e8 5b f4 ff ff       	call   20b0 <_ZNSt7__cxx1112basic_stringIcSt11char_traitsIcESaIcEE10_M_disposeEv@plt>
    2c55:	48 8b 84 24 a8 02 00 	mov    rax,QWORD PTR [rsp+0x2a8]
    2c5c:	00 
    2c5d:	64 48 2b 04 25 28 00 	sub    rax,QWORD PTR fs:0x28
    2c64:	00 00 
    2c66:	75 0d                	jne    2c75 <_Z16AvxPackedMathF32v.cold+0x457>
    2c68:	48 89 df             	mov    rdi,rbx
    2c6b:	e8 90 f4 ff ff       	call   2100 <_Unwind_Resume@plt>
    2c70:	e8 1b f4 ff ff       	call   2090 <__stack_chk_fail@plt>
    2c75:	e8 16 f4 ff ff       	call   2090 <__stack_chk_fail@plt>
    2c7a:	48 8b 7c 24 50       	mov    rdi,QWORD PTR [rsp+0x50]
    2c7f:	e8 5c 47 00 00       	call   73e0 <_ZNSt7__cxx1115basic_stringbufIcSt11char_traitsIcESaIcEED1Ev>
    2c84:	49 8b 47 e8          	mov    rax,QWORD PTR [r15-0x18]
    2c88:	48 8b 0d 09 70 00 00 	mov    rcx,QWORD PTR [rip+0x7009]        # 9c98 <_ZTTNSt7__cxx1119basic_ostringstreamIcSt11char_traitsIcESaIcEEE@GLIBCXX_3.4.21+0x10>
    2c8f:	4c 89 bc 24 30 01 00 	mov    QWORD PTR [rsp+0x130],r15
    2c96:	00 
    2c97:	48 89 8c 04 30 01 00 	mov    QWORD PTR [rsp+rax*1+0x130],rcx
    2c9e:	00 
    2c9f:	48 8b 7c 24 08       	mov    rdi,QWORD PTR [rsp+0x8]
    2ca4:	48 8d 05 fd 6e 00 00 	lea    rax,[rip+0x6efd]        # 9ba8 <_ZTVSt9basic_iosIcSt11char_traitsIcEE@GLIBCXX_3.4+0x10>
    2cab:	48 89 84 24 a0 01 00 	mov    QWORD PTR [rsp+0x1a0],rax
    2cb2:	00 
    2cb3:	e8 a8 f3 ff ff       	call   2060 <_ZNSt8ios_baseD2Ev@plt>
    2cb8:	48 8b 84 24 a8 02 00 	mov    rax,QWORD PTR [rsp+0x2a8]
    2cbf:	00 
    2cc0:	64 48 2b 04 25 28 00 	sub    rax,QWORD PTR fs:0x28
    2cc7:	00 00 
    2cc9:	75 08                	jne    2cd3 <_Z16AvxPackedMathF32v.cold+0x4b5>
    2ccb:	48 89 df             	mov    rdi,rbx
    2cce:	e8 2d f4 ff ff       	call   2100 <_Unwind_Resume@plt>
    2cd3:	e8 b8 f3 ff ff       	call   2090 <__stack_chk_fail@plt>
    2cd8:	48 8b 7c 24 48       	mov    rdi,QWORD PTR [rsp+0x48]
    2cdd:	e8 ce f3 ff ff       	call   20b0 <_ZNSt7__cxx1112basic_stringIcSt11char_traitsIcESaIcEE10_M_disposeEv@plt>
    2ce2:	48 89 df             	mov    rdi,rbx
    2ce5:	e8 56 f3 ff ff       	call   2040 <_ZNSt7__cxx1119basic_ostringstreamIcSt11char_traitsIcESaIcEED1Ev@plt>
    2cea:	48 8b 84 24 a8 02 00 	mov    rax,QWORD PTR [rsp+0x2a8]
    2cf1:	00 
    2cf2:	64 48 2b 04 25 28 00 	sub    rax,QWORD PTR fs:0x28
    2cf9:	00 00 
    2cfb:	75 08                	jne    2d05 <_Z16AvxPackedMathF32v.cold+0x4e7>
    2cfd:	48 89 ef             	mov    rdi,rbp
    2d00:	e8 fb f3 ff ff       	call   2100 <_Unwind_Resume@plt>
    2d05:	e8 86 f3 ff ff       	call   2090 <__stack_chk_fail@plt>
    2d0a:	48 8b 7c 24 48       	mov    rdi,QWORD PTR [rsp+0x48]
    2d0f:	e8 9c f3 ff ff       	call   20b0 <_ZNSt7__cxx1112basic_stringIcSt11char_traitsIcESaIcEE10_M_disposeEv@plt>
    2d14:	48 8b 84 24 a8 02 00 	mov    rax,QWORD PTR [rsp+0x2a8]
    2d1b:	00 
    2d1c:	64 48 2b 04 25 28 00 	sub    rax,QWORD PTR fs:0x28
    2d23:	00 00 
    2d25:	75 65                	jne    2d8c <_Z16AvxPackedMathF32v.cold+0x56e>
    2d27:	48 89 df             	mov    rdi,rbx
    2d2a:	e8 d1 f3 ff ff       	call   2100 <_Unwind_Resume@plt>
    2d2f:	48 8b 7c 24 50       	mov    rdi,QWORD PTR [rsp+0x50]
    2d34:	e8 a7 46 00 00       	call   73e0 <_ZNSt7__cxx1115basic_stringbufIcSt11char_traitsIcESaIcEED1Ev>
    2d39:	49 8b 47 e8          	mov    rax,QWORD PTR [r15-0x18]
    2d3d:	48 8b 0d 54 6f 00 00 	mov    rcx,QWORD PTR [rip+0x6f54]        # 9c98 <_ZTTNSt7__cxx1119basic_ostringstreamIcSt11char_traitsIcESaIcEEE@GLIBCXX_3.4.21+0x10>
    2d44:	4c 89 bc 24 30 01 00 	mov    QWORD PTR [rsp+0x130],r15
    2d4b:	00 
    2d4c:	48 89 8c 04 30 01 00 	mov    QWORD PTR [rsp+rax*1+0x130],rcx
    2d53:	00 
    2d54:	48 8b 7c 24 08       	mov    rdi,QWORD PTR [rsp+0x8]
    2d59:	48 8d 05 48 6e 00 00 	lea    rax,[rip+0x6e48]        # 9ba8 <_ZTVSt9basic_iosIcSt11char_traitsIcEE@GLIBCXX_3.4+0x10>
    2d60:	48 89 84 24 a0 01 00 	mov    QWORD PTR [rsp+0x1a0],rax
    2d67:	00 
    2d68:	e8 f3 f2 ff ff       	call   2060 <_ZNSt8ios_baseD2Ev@plt>
    2d6d:	48 8b 84 24 a8 02 00 	mov    rax,QWORD PTR [rsp+0x2a8]
    2d74:	00 
    2d75:	64 48 2b 04 25 28 00 	sub    rax,QWORD PTR fs:0x28
    2d7c:	00 00 
    2d7e:	0f 85 7a 01 00 00    	jne    2efe <_Z16AvxPackedMathF32v.cold+0x6e0>
    2d84:	48 89 df             	mov    rdi,rbx
    2d87:	e8 74 f3 ff ff       	call   2100 <_Unwind_Resume@plt>
    2d8c:	e8 ff f2 ff ff       	call   2090 <__stack_chk_fail@plt>
    2d91:	48 8b 7c 24 48       	mov    rdi,QWORD PTR [rsp+0x48]
    2d96:	e8 15 f3 ff ff       	call   20b0 <_ZNSt7__cxx1112basic_stringIcSt11char_traitsIcESaIcEE10_M_disposeEv@plt>
    2d9b:	48 89 df             	mov    rdi,rbx
    2d9e:	e8 9d f2 ff ff       	call   2040 <_ZNSt7__cxx1119basic_ostringstreamIcSt11char_traitsIcESaIcEED1Ev@plt>
    2da3:	48 8b 84 24 a8 02 00 	mov    rax,QWORD PTR [rsp+0x2a8]
    2daa:	00 
    2dab:	64 48 2b 04 25 28 00 	sub    rax,QWORD PTR fs:0x28
    2db2:	00 00 
    2db4:	75 08                	jne    2dbe <_Z16AvxPackedMathF32v.cold+0x5a0>
    2db6:	48 89 ef             	mov    rdi,rbp
    2db9:	e8 42 f3 ff ff       	call   2100 <_Unwind_Resume@plt>
    2dbe:	e8 cd f2 ff ff       	call   2090 <__stack_chk_fail@plt>
    2dc3:	48 8b 7c 24 48       	mov    rdi,QWORD PTR [rsp+0x48]
    2dc8:	e8 e3 f2 ff ff       	call   20b0 <_ZNSt7__cxx1112basic_stringIcSt11char_traitsIcESaIcEE10_M_disposeEv@plt>
    2dcd:	48 8b 84 24 a8 02 00 	mov    rax,QWORD PTR [rsp+0x2a8]
    2dd4:	00 
    2dd5:	64 48 2b 04 25 28 00 	sub    rax,QWORD PTR fs:0x28
    2ddc:	00 00 
    2dde:	75 61                	jne    2e41 <_Z16AvxPackedMathF32v.cold+0x623>
    2de0:	48 89 df             	mov    rdi,rbx
    2de3:	e8 18 f3 ff ff       	call   2100 <_Unwind_Resume@plt>
    2de8:	48 8b 7c 24 50       	mov    rdi,QWORD PTR [rsp+0x50]
    2ded:	e8 ee 45 00 00       	call   73e0 <_ZNSt7__cxx1115basic_stringbufIcSt11char_traitsIcESaIcEED1Ev>
    2df2:	49 8b 47 e8          	mov    rax,QWORD PTR [r15-0x18]
    2df6:	48 8b 0d 9b 6e 00 00 	mov    rcx,QWORD PTR [rip+0x6e9b]        # 9c98 <_ZTTNSt7__cxx1119basic_ostringstreamIcSt11char_traitsIcESaIcEEE@GLIBCXX_3.4.21+0x10>
    2dfd:	4c 89 bc 24 30 01 00 	mov    QWORD PTR [rsp+0x130],r15
    2e04:	00 
    2e05:	48 89 8c 04 30 01 00 	mov    QWORD PTR [rsp+rax*1+0x130],rcx
    2e0c:	00 
    2e0d:	48 8b 7c 24 08       	mov    rdi,QWORD PTR [rsp+0x8]
    2e12:	48 8d 05 8f 6d 00 00 	lea    rax,[rip+0x6d8f]        # 9ba8 <_ZTVSt9basic_iosIcSt11char_traitsIcEE@GLIBCXX_3.4+0x10>
    2e19:	48 89 84 24 a0 01 00 	mov    QWORD PTR [rsp+0x1a0],rax
    2e20:	00 
    2e21:	e8 3a f2 ff ff       	call   2060 <_ZNSt8ios_baseD2Ev@plt>
    2e26:	48 8b 84 24 a8 02 00 	mov    rax,QWORD PTR [rsp+0x2a8]
    2e2d:	00 
    2e2e:	64 48 2b 04 25 28 00 	sub    rax,QWORD PTR fs:0x28
    2e35:	00 00 
    2e37:	75 0d                	jne    2e46 <_Z16AvxPackedMathF32v.cold+0x628>
    2e39:	48 89 df             	mov    rdi,rbx
    2e3c:	e8 bf f2 ff ff       	call   2100 <_Unwind_Resume@plt>
    2e41:	e8 4a f2 ff ff       	call   2090 <__stack_chk_fail@plt>
    2e46:	e8 45 f2 ff ff       	call   2090 <__stack_chk_fail@plt>
    2e4b:	48 8b 7c 24 48       	mov    rdi,QWORD PTR [rsp+0x48]
    2e50:	e8 5b f2 ff ff       	call   20b0 <_ZNSt7__cxx1112basic_stringIcSt11char_traitsIcESaIcEE10_M_disposeEv@plt>
    2e55:	48 89 df             	mov    rdi,rbx
    2e58:	e8 e3 f1 ff ff       	call   2040 <_ZNSt7__cxx1119basic_ostringstreamIcSt11char_traitsIcESaIcEED1Ev@plt>
    2e5d:	48 8b 84 24 a8 02 00 	mov    rax,QWORD PTR [rsp+0x2a8]
    2e64:	00 
    2e65:	64 48 2b 04 25 28 00 	sub    rax,QWORD PTR fs:0x28
    2e6c:	00 00 
    2e6e:	75 2d                	jne    2e9d <_Z16AvxPackedMathF32v.cold+0x67f>
    2e70:	48 89 ef             	mov    rdi,rbp
    2e73:	e8 88 f2 ff ff       	call   2100 <_Unwind_Resume@plt>
    2e78:	48 8b 7c 24 48       	mov    rdi,QWORD PTR [rsp+0x48]
    2e7d:	e8 2e f2 ff ff       	call   20b0 <_ZNSt7__cxx1112basic_stringIcSt11char_traitsIcESaIcEE10_M_disposeEv@plt>
    2e82:	48 8b 84 24 a8 02 00 	mov    rax,QWORD PTR [rsp+0x2a8]
    2e89:	00 
    2e8a:	64 48 2b 04 25 28 00 	sub    rax,QWORD PTR fs:0x28
    2e91:	00 00 
    2e93:	75 0d                	jne    2ea2 <_Z16AvxPackedMathF32v.cold+0x684>
    2e95:	48 89 df             	mov    rdi,rbx
    2e98:	e8 63 f2 ff ff       	call   2100 <_Unwind_Resume@plt>
    2e9d:	e8 ee f1 ff ff       	call   2090 <__stack_chk_fail@plt>
    2ea2:	e8 e9 f1 ff ff       	call   2090 <__stack_chk_fail@plt>
    2ea7:	48 8b 7c 24 48       	mov    rdi,QWORD PTR [rsp+0x48]
    2eac:	e8 ff f1 ff ff       	call   20b0 <_ZNSt7__cxx1112basic_stringIcSt11char_traitsIcESaIcEE10_M_disposeEv@plt>
    2eb1:	48 89 df             	mov    rdi,rbx
    2eb4:	e8 87 f1 ff ff       	call   2040 <_ZNSt7__cxx1119basic_ostringstreamIcSt11char_traitsIcESaIcEED1Ev@plt>
    2eb9:	48 8b 84 24 a8 02 00 	mov    rax,QWORD PTR [rsp+0x2a8]
    2ec0:	00 
    2ec1:	64 48 2b 04 25 28 00 	sub    rax,QWORD PTR fs:0x28
    2ec8:	00 00 
    2eca:	75 2d                	jne    2ef9 <_Z16AvxPackedMathF32v.cold+0x6db>
    2ecc:	48 89 ef             	mov    rdi,rbp
    2ecf:	e8 2c f2 ff ff       	call   2100 <_Unwind_Resume@plt>
    2ed4:	48 8b 7c 24 48       	mov    rdi,QWORD PTR [rsp+0x48]
    2ed9:	e8 d2 f1 ff ff       	call   20b0 <_ZNSt7__cxx1112basic_stringIcSt11char_traitsIcESaIcEE10_M_disposeEv@plt>
    2ede:	48 8b 84 24 a8 02 00 	mov    rax,QWORD PTR [rsp+0x2a8]
    2ee5:	00 
    2ee6:	64 48 2b 04 25 28 00 	sub    rax,QWORD PTR fs:0x28
    2eed:	00 00 
    2eef:	75 70                	jne    2f61 <_Z16AvxPackedMathF32v.cold+0x743>
    2ef1:	48 89 df             	mov    rdi,rbx
    2ef4:	e8 07 f2 ff ff       	call   2100 <_Unwind_Resume@plt>
    2ef9:	e8 92 f1 ff ff       	call   2090 <__stack_chk_fail@plt>
    2efe:	e8 8d f1 ff ff       	call   2090 <__stack_chk_fail@plt>
    2f03:	48 8b 7c 24 50       	mov    rdi,QWORD PTR [rsp+0x50]
    2f08:	e8 d3 44 00 00       	call   73e0 <_ZNSt7__cxx1115basic_stringbufIcSt11char_traitsIcESaIcEED1Ev>
    2f0d:	49 8b 47 e8          	mov    rax,QWORD PTR [r15-0x18]
    2f11:	48 8b 0d 80 6d 00 00 	mov    rcx,QWORD PTR [rip+0x6d80]        # 9c98 <_ZTTNSt7__cxx1119basic_ostringstreamIcSt11char_traitsIcESaIcEEE@GLIBCXX_3.4.21+0x10>
    2f18:	4c 89 bc 24 30 01 00 	mov    QWORD PTR [rsp+0x130],r15
    2f1f:	00 
    2f20:	48 89 8c 04 30 01 00 	mov    QWORD PTR [rsp+rax*1+0x130],rcx
    2f27:	00 
    2f28:	48 8b 7c 24 08       	mov    rdi,QWORD PTR [rsp+0x8]
    2f2d:	48 8d 05 74 6c 00 00 	lea    rax,[rip+0x6c74]        # 9ba8 <_ZTVSt9basic_iosIcSt11char_traitsIcEE@GLIBCXX_3.4+0x10>
    2f34:	48 89 84 24 a0 01 00 	mov    QWORD PTR [rsp+0x1a0],rax
    2f3b:	00 
    2f3c:	e8 1f f1 ff ff       	call   2060 <_ZNSt8ios_baseD2Ev@plt>
    2f41:	48 8b 84 24 a8 02 00 	mov    rax,QWORD PTR [rsp+0x2a8]
    2f48:	00 
    2f49:	64 48 2b 04 25 28 00 	sub    rax,QWORD PTR fs:0x28
    2f50:	00 00 
    2f52:	75 08                	jne    2f5c <_Z16AvxPackedMathF32v.cold+0x73e>
    2f54:	48 89 df             	mov    rdi,rbx
    2f57:	e8 a4 f1 ff ff       	call   2100 <_Unwind_Resume@plt>
    2f5c:	e8 2f f1 ff ff       	call   2090 <__stack_chk_fail@plt>
    2f61:	e8 2a f1 ff ff       	call   2090 <__stack_chk_fail@plt>
    2f66:	66 2e 0f 1f 84 00 00 	cs nop WORD PTR [rax+rax*1+0x0]
    2f6d:	00 00 00 

0000000000002f70 <main>:
    2f70:	f3 0f 1e fa          	endbr64
    2f74:	48 83 ec 08          	sub    rsp,0x8
    2f78:	e8 43 21 00 00       	call   50c0 <_Z16AvxPackedMathF32v>
    2f7d:	e8 fe 00 00 00       	call   3080 <_Z16AvxPackedMathF64v>
    2f82:	31 c0                	xor    eax,eax
    2f84:	48 83 c4 08          	add    rsp,0x8
    2f88:	c3                   	ret
    2f89:	0f 1f 80 00 00 00 00 	nop    DWORD PTR [rax+0x0]

0000000000002f90 <_start>:
    2f90:	f3 0f 1e fa          	endbr64
    2f94:	31 ed                	xor    ebp,ebp
    2f96:	49 89 d1             	mov    r9,rdx
    2f99:	5e                   	pop    rsi
    2f9a:	48 89 e2             	mov    rdx,rsp
    2f9d:	48 83 e4 f0          	and    rsp,0xfffffffffffffff0
    2fa1:	50                   	push   rax
    2fa2:	54                   	push   rsp
    2fa3:	45 31 c0             	xor    r8d,r8d
    2fa6:	31 c9                	xor    ecx,ecx
    2fa8:	48 8d 3d c1 ff ff ff 	lea    rdi,[rip+0xffffffffffffffc1]        # 2f70 <main>
    2faf:	ff 15 2b 70 00 00    	call   QWORD PTR [rip+0x702b]        # 9fe0 <__libc_start_main@GLIBC_2.34>
    2fb5:	f4                   	hlt
    2fb6:	66 2e 0f 1f 84 00 00 	cs nop WORD PTR [rax+rax*1+0x0]
    2fbd:	00 00 00 

0000000000002fc0 <deregister_tm_clones>:
    2fc0:	48 8d 3d 79 70 00 00 	lea    rdi,[rip+0x7079]        # a040 <_ZSt4cout@GLIBCXX_3.4>
    2fc7:	48 8d 05 72 70 00 00 	lea    rax,[rip+0x7072]        # a040 <_ZSt4cout@GLIBCXX_3.4>
    2fce:	48 39 f8             	cmp    rax,rdi
    2fd1:	74 15                	je     2fe8 <deregister_tm_clones+0x28>
    2fd3:	48 8b 05 0e 70 00 00 	mov    rax,QWORD PTR [rip+0x700e]        # 9fe8 <_ITM_deregisterTMCloneTable@Base>
    2fda:	48 85 c0             	test   rax,rax
    2fdd:	74 09                	je     2fe8 <deregister_tm_clones+0x28>
    2fdf:	ff e0                	jmp    rax
    2fe1:	0f 1f 80 00 00 00 00 	nop    DWORD PTR [rax+0x0]
    2fe8:	c3                   	ret
    2fe9:	0f 1f 80 00 00 00 00 	nop    DWORD PTR [rax+0x0]

0000000000002ff0 <register_tm_clones>:
    2ff0:	48 8d 3d 49 70 00 00 	lea    rdi,[rip+0x7049]        # a040 <_ZSt4cout@GLIBCXX_3.4>
    2ff7:	48 8d 35 42 70 00 00 	lea    rsi,[rip+0x7042]        # a040 <_ZSt4cout@GLIBCXX_3.4>
    2ffe:	48 29 fe             	sub    rsi,rdi
    3001:	48 89 f0             	mov    rax,rsi
    3004:	48 c1 ee 3f          	shr    rsi,0x3f
    3008:	48 c1 f8 03          	sar    rax,0x3
    300c:	48 01 c6             	add    rsi,rax
    300f:	48 d1 fe             	sar    rsi,1
    3012:	74 14                	je     3028 <register_tm_clones+0x38>
    3014:	48 8b 05 dd 6f 00 00 	mov    rax,QWORD PTR [rip+0x6fdd]        # 9ff8 <_ITM_registerTMCloneTable@Base>
    301b:	48 85 c0             	test   rax,rax
    301e:	74 08                	je     3028 <register_tm_clones+0x38>
    3020:	ff e0                	jmp    rax
    3022:	66 0f 1f 44 00 00    	nop    WORD PTR [rax+rax*1+0x0]
    3028:	c3                   	ret
    3029:	0f 1f 80 00 00 00 00 	nop    DWORD PTR [rax+0x0]

0000000000003030 <__do_global_dtors_aux>:
    3030:	f3 0f 1e fa          	endbr64
    3034:	80 3d 15 71 00 00 00 	cmp    BYTE PTR [rip+0x7115],0x0        # a150 <completed.0>
    303b:	75 2b                	jne    3068 <__do_global_dtors_aux+0x38>
    303d:	55                   	push   rbp
    303e:	48 83 3d 92 6f 00 00 	cmp    QWORD PTR [rip+0x6f92],0x0        # 9fd8 <__cxa_finalize@GLIBC_2.2.5>
    3045:	00 
    3046:	48 89 e5             	mov    rbp,rsp
    3049:	74 0c                	je     3057 <__do_global_dtors_aux+0x27>
    304b:	48 8b 3d b6 6f 00 00 	mov    rdi,QWORD PTR [rip+0x6fb6]        # a008 <__dso_handle>
    3052:	e8 c9 f0 ff ff       	call   2120 <__cxa_finalize@plt>
    3057:	e8 64 ff ff ff       	call   2fc0 <deregister_tm_clones>
    305c:	c6 05 ed 70 00 00 01 	mov    BYTE PTR [rip+0x70ed],0x1        # a150 <completed.0>
    3063:	5d                   	pop    rbp
    3064:	c3                   	ret
    3065:	0f 1f 00             	nop    DWORD PTR [rax]
    3068:	c3                   	ret
    3069:	0f 1f 80 00 00 00 00 	nop    DWORD PTR [rax+0x0]

0000000000003070 <frame_dummy>:
    3070:	f3 0f 1e fa          	endbr64
    3074:	e9 77 ff ff ff       	jmp    2ff0 <register_tm_clones>
    3079:	0f 1f 80 00 00 00 00 	nop    DWORD PTR [rax+0x0]

0000000000003080 <_Z16AvxPackedMathF64v>:
    3080:	f3 0f 1e fa          	endbr64
    3084:	41 57                	push   r15
    3086:	41 56                	push   r14
    3088:	41 55                	push   r13
    308a:	4c 8d 2d 17 6b 00 00 	lea    r13,[rip+0x6b17]        # 9ba8 <_ZTVSt9basic_iosIcSt11char_traitsIcEE@GLIBCXX_3.4+0x10>
    3091:	41 54                	push   r12
    3093:	55                   	push   rbp
    3094:	31 ed                	xor    ebp,ebp
    3096:	53                   	push   rbx
    3097:	48 81 ec 98 02 00 00 	sub    rsp,0x298
    309e:	64 48 8b 04 25 28 00 	mov    rax,QWORD PTR fs:0x28
    30a5:	00 00 
    30a7:	48 89 84 24 88 02 00 	mov    QWORD PTR [rsp+0x288],rax
    30ae:	00 
    30af:	48 8d 05 9a 6b 00 00 	lea    rax,[rip+0x6b9a]        # 9c50 <_ZTVNSt7__cxx1119basic_ostringstreamIcSt11char_traitsIcESaIcEEE@GLIBCXX_3.4.21+0x18>
    30b6:	48 8d 74 24 60       	lea    rsi,[rsp+0x60]
    30bb:	48 8d 94 24 90 00 00 	lea    rdx,[rsp+0x90]
    30c2:	00 
    30c3:	48 8d 7c 24 50       	lea    rdi,[rsp+0x50]
    30c8:	4c 8d a4 24 80 01 00 	lea    r12,[rsp+0x180]
    30cf:	00 
    30d0:	48 8d 9c 24 10 01 00 	lea    rbx,[rsp+0x110]
    30d7:	00 
    30d8:	66 48 0f 6e c0       	movq   xmm0,rax
    30dd:	66 0f 6f d0          	movdqa xmm2,xmm0
    30e1:	66 0f 6f c8          	movdqa xmm1,xmm0
    30e5:	66 0f 28 05 13 50 00 	movapd xmm0,XMMWORD PTR [rip+0x5013]        # 8100 <_IO_stdin_used+0x100>
    30ec:	00 
    30ed:	0f 16 15 34 6c 00 00 	movhps xmm2,QWORD PTR [rip+0x6c34]        # 9d28 <_ZTVNSt7__cxx1115basic_stringbufIcSt11char_traitsIcESaIcEEE@GLIBCXX_3.4.21+0x80>
    30f4:	0f 16 0d 35 6c 00 00 	movhps xmm1,QWORD PTR [rip+0x6c35]        # 9d30 <_ZTVSt15basic_streambufIcSt11char_traitsIcEE@GLIBCXX_3.4+0x178>
    30fb:	0f 29 44 24 50       	movaps XMMWORD PTR [rsp+0x50],xmm0
    3100:	66 0f 28 05 08 50 00 	movapd xmm0,XMMWORD PTR [rip+0x5008]        # 8110 <_IO_stdin_used+0x110>
    3107:	00 
    3108:	0f 29 54 24 20       	movaps XMMWORD PTR [rsp+0x20],xmm2
    310d:	0f 29 44 24 60       	movaps XMMWORD PTR [rsp+0x60],xmm0
    3112:	0f 29 4c 24 10       	movaps XMMWORD PTR [rsp+0x10],xmm1
    3117:	e8 a8 43 00 00       	call   74c4 <AvxPackedMathF64_>
    311c:	ba 1e 00 00 00       	mov    edx,0x1e
    3121:	48 8d 35 e0 4e 00 00 	lea    rsi,[rip+0x4ee0]        # 8008 <_IO_stdin_used+0x8>
    3128:	48 8d 3d 11 6f 00 00 	lea    rdi,[rip+0x6f11]        # a040 <_ZSt4cout@GLIBCXX_3.4>
    312f:	e8 6c ef ff ff       	call   20a0 <_ZSt16__ostream_insertIcSt11char_traitsIcEERSt13basic_ostreamIT_T0_ES6_PKS3_l@plt>
    3134:	48 8d 35 0c 4f 00 00 	lea    rsi,[rip+0x4f0c]        # 8047 <_IO_stdin_used+0x47>
    313b:	ba 09 00 00 00       	mov    edx,0x9
    3140:	48 8d 3d f9 6e 00 00 	lea    rdi,[rip+0x6ef9]        # a040 <_ZSt4cout@GLIBCXX_3.4>
    3147:	e8 54 ef ff ff       	call   20a0 <_ZSt16__ostream_insertIcSt11char_traitsIcEERSt13basic_ostreamIT_T0_ES6_PKS3_l@plt>
    314c:	4c 89 e7             	mov    rdi,r12
    314f:	e8 fc ee ff ff       	call   2050 <_ZNSt8ios_baseC2Ev@plt>
    3154:	66 89 ac 24 60 02 00 	mov    WORD PTR [rsp+0x260],bp
    315b:	00 
    315c:	31 f6                	xor    esi,esi
    315e:	48 8b 2d 2b 6b 00 00 	mov    rbp,QWORD PTR [rip+0x6b2b]        # 9c90 <_ZTTNSt7__cxx1119basic_ostringstreamIcSt11char_traitsIcESaIcEEE@GLIBCXX_3.4.21+0x8>
    3165:	66 0f ef c0          	pxor   xmm0,xmm0
    3169:	48 8b 05 28 6b 00 00 	mov    rax,QWORD PTR [rip+0x6b28]        # 9c98 <_ZTTNSt7__cxx1119basic_ostringstreamIcSt11char_traitsIcESaIcEEE@GLIBCXX_3.4.21+0x10>
    3170:	4c 89 ac 24 80 01 00 	mov    QWORD PTR [rsp+0x180],r13
    3177:	00 
    3178:	0f 11 84 24 68 02 00 	movups XMMWORD PTR [rsp+0x268],xmm0
    317f:	00 
    3180:	0f 11 84 24 78 02 00 	movups XMMWORD PTR [rsp+0x278],xmm0
    3187:	00 
    3188:	48 8b 7d e8          	mov    rdi,QWORD PTR [rbp-0x18]
    318c:	48 c7 84 24 58 02 00 	mov    QWORD PTR [rsp+0x258],0x0
    3193:	00 00 00 00 00 
    3198:	48 01 df             	add    rdi,rbx
    319b:	48 89 ac 24 10 01 00 	mov    QWORD PTR [rsp+0x110],rbp
    31a2:	00 
    31a3:	48 89 07             	mov    QWORD PTR [rdi],rax
    31a6:	e8 15 ef ff ff       	call   20c0 <_ZNSt9basic_iosIcSt11char_traitsIcEE4initEPSt15basic_streambufIcS1_E@plt>
    31ab:	48 8d 84 24 50 01 00 	lea    rax,[rsp+0x150]
    31b2:	00 
    31b3:	66 0f 6f 4c 24 10    	movdqa xmm1,XMMWORD PTR [rsp+0x10]
    31b9:	66 0f ef c0          	pxor   xmm0,xmm0
    31bd:	4c 8d 3d b4 6a 00 00 	lea    r15,[rip+0x6ab4]        # 9c78 <_ZTVNSt7__cxx1119basic_ostringstreamIcSt11char_traitsIcESaIcEEE@GLIBCXX_3.4.21+0x40>
    31c4:	48 89 c7             	mov    rdi,rax
    31c7:	48 89 44 24 08       	mov    QWORD PTR [rsp+0x8],rax
    31cc:	4c 8d b4 24 70 01 00 	lea    r14,[rsp+0x170]
    31d3:	00 
    31d4:	4c 89 bc 24 80 01 00 	mov    QWORD PTR [rsp+0x180],r15
    31db:	00 
    31dc:	0f 29 8c 24 10 01 00 	movaps XMMWORD PTR [rsp+0x110],xmm1
    31e3:	00 
    31e4:	0f 29 84 24 20 01 00 	movaps XMMWORD PTR [rsp+0x120],xmm0
    31eb:	00 
    31ec:	0f 29 84 24 30 01 00 	movaps XMMWORD PTR [rsp+0x130],xmm0
    31f3:	00 
    31f4:	0f 29 84 24 40 01 00 	movaps XMMWORD PTR [rsp+0x140],xmm0
    31fb:	00 
    31fc:	e8 0f ef ff ff       	call   2110 <_ZNSt6localeC1Ev@plt>
    3201:	48 8d 05 b0 6a 00 00 	lea    rax,[rip+0x6ab0]        # 9cb8 <_ZTVNSt7__cxx1115basic_stringbufIcSt11char_traitsIcESaIcEEE@GLIBCXX_3.4.21+0x10>
    3208:	4c 89 e7             	mov    rdi,r12
    320b:	c7 84 24 58 01 00 00 	mov    DWORD PTR [rsp+0x158],0x10
    3212:	10 00 00 00 
    3216:	48 89 84 24 18 01 00 	mov    QWORD PTR [rsp+0x118],rax
    321d:	00 
    321e:	48 8d 84 24 18 01 00 	lea    rax,[rsp+0x118]
    3225:	00 
    3226:	48 89 c6             	mov    rsi,rax
    3229:	4c 89 b4 24 60 01 00 	mov    QWORD PTR [rsp+0x160],r14
    3230:	00 
    3231:	48 c7 84 24 68 01 00 	mov    QWORD PTR [rsp+0x168],0x0
    3238:	00 00 00 00 00 
    323d:	c6 84 24 70 01 00 00 	mov    BYTE PTR [rsp+0x170],0x0
    3244:	00 
    3245:	48 89 44 24 38       	mov    QWORD PTR [rsp+0x38],rax
    324a:	e8 71 ee ff ff       	call   20c0 <_ZNSt9basic_iosIcSt11char_traitsIcEE4initEPSt15basic_streambufIcS1_E@plt>
    324f:	48 8b 8c 24 10 01 00 	mov    rcx,QWORD PTR [rsp+0x110]
    3256:	00 
    3257:	f2 0f 10 44 24 50    	movsd  xmm0,QWORD PTR [rsp+0x50]
    325d:	48 89 df             	mov    rdi,rbx
    3260:	48 8b 51 e8          	mov    rdx,QWORD PTR [rcx-0x18]
    3264:	48 01 da             	add    rdx,rbx
    3267:	8b 42 18             	mov    eax,DWORD PTR [rdx+0x18]
    326a:	48 c7 42 08 0c 00 00 	mov    QWORD PTR [rdx+0x8],0xc
    3271:	00 
    3272:	25 fb fe ff ff       	and    eax,0xfffffefb
    3277:	83 c8 04             	or     eax,0x4
    327a:	89 42 18             	mov    DWORD PTR [rdx+0x18],eax
    327d:	48 8b 41 e8          	mov    rax,QWORD PTR [rcx-0x18]
    3281:	48 c7 84 04 20 01 00 	mov    QWORD PTR [rsp+rax*1+0x120],0x20
    3288:	00 20 00 00 00 
    328d:	e8 5e ee ff ff       	call   20f0 <_ZNSo9_M_insertIdEERSoT_@plt>
    3292:	ba 04 00 00 00       	mov    edx,0x4
    3297:	48 8d 35 b3 4d 00 00 	lea    rsi,[rip+0x4db3]        # 8051 <_IO_stdin_used+0x51>
    329e:	48 89 df             	mov    rdi,rbx
    32a1:	e8 fa ed ff ff       	call   20a0 <_ZSt16__ostream_insertIcSt11char_traitsIcEERSt13basic_ostreamIT_T0_ES6_PKS3_l@plt>
    32a6:	48 8b 84 24 10 01 00 	mov    rax,QWORD PTR [rsp+0x110]
    32ad:	00 
    32ae:	f2 0f 10 44 24 58    	movsd  xmm0,QWORD PTR [rsp+0x58]
    32b4:	48 89 df             	mov    rdi,rbx
    32b7:	48 8b 40 e8          	mov    rax,QWORD PTR [rax-0x18]
    32bb:	48 c7 84 04 20 01 00 	mov    QWORD PTR [rsp+rax*1+0x120],0x20
    32c2:	00 20 00 00 00 
    32c7:	e8 24 ee ff ff       	call   20f0 <_ZNSo9_M_insertIdEERSoT_@plt>
    32cc:	4c 8b 84 24 40 01 00 	mov    r8,QWORD PTR [rsp+0x140]
    32d3:	00 
    32d4:	48 8d 7c 24 70       	lea    rdi,[rsp+0x70]
    32d9:	48 8d 84 24 80 00 00 	lea    rax,[rsp+0x80]
    32e0:	00 
    32e1:	48 c7 44 24 78 00 00 	mov    QWORD PTR [rsp+0x78],0x0
    32e8:	00 00 
    32ea:	48 89 7c 24 30       	mov    QWORD PTR [rsp+0x30],rdi
    32ef:	48 89 04 24          	mov    QWORD PTR [rsp],rax
    32f3:	48 89 44 24 70       	mov    QWORD PTR [rsp+0x70],rax
    32f8:	c6 84 24 80 00 00 00 	mov    BYTE PTR [rsp+0x80],0x0
    32ff:	00 
    3300:	4d 85 c0             	test   r8,r8
    3303:	0f 84 37 1a 00 00    	je     4d40 <_Z16AvxPackedMathF64v+0x1cc0>
    3309:	48 8b 84 24 30 01 00 	mov    rax,QWORD PTR [rsp+0x130]
    3310:	00 
    3311:	4c 89 c2             	mov    rdx,r8
    3314:	48 8b 8c 24 38 01 00 	mov    rcx,QWORD PTR [rsp+0x138]
    331b:	00 
    331c:	4c 39 c0             	cmp    rax,r8
    331f:	4c 0f 43 c0          	cmovae r8,rax
    3323:	48 85 c0             	test   rax,rax
    3326:	4c 0f 44 c2          	cmove  r8,rdx
    332a:	31 d2                	xor    edx,edx
    332c:	31 f6                	xor    esi,esi
    332e:	49 29 c8             	sub    r8,rcx
    3331:	e8 aa ed ff ff       	call   20e0 <_ZNSt7__cxx1112basic_stringIcSt11char_traitsIcESaIcEE10_M_replaceEmmPKcm@plt>
    3336:	66 0f 6f 5c 24 20    	movdqa xmm3,XMMWORD PTR [rsp+0x20]
    333c:	48 8b bc 24 60 01 00 	mov    rdi,QWORD PTR [rsp+0x160]
    3343:	00 
    3344:	4c 89 bc 24 80 01 00 	mov    QWORD PTR [rsp+0x180],r15
    334b:	00 
    334c:	0f 29 9c 24 10 01 00 	movaps XMMWORD PTR [rsp+0x110],xmm3
    3353:	00 
    3354:	4c 39 f7             	cmp    rdi,r14
    3357:	74 11                	je     336a <_Z16AvxPackedMathF64v+0x2ea>
    3359:	48 8b 84 24 70 01 00 	mov    rax,QWORD PTR [rsp+0x170]
    3360:	00 
    3361:	48 8d 70 01          	lea    rsi,[rax+0x1]
    3365:	e8 16 ed ff ff       	call   2080 <_ZdlPvm@plt>
    336a:	48 8b 7c 24 08       	mov    rdi,QWORD PTR [rsp+0x8]
    336f:	48 8d 05 52 68 00 00 	lea    rax,[rip+0x6852]        # 9bc8 <_ZTVSt15basic_streambufIcSt11char_traitsIcEE@GLIBCXX_3.4+0x10>
    3376:	48 89 84 24 18 01 00 	mov    QWORD PTR [rsp+0x118],rax
    337d:	00 
    337e:	e8 4d ed ff ff       	call   20d0 <_ZNSt6localeD1Ev@plt>
    3383:	48 8b 45 e8          	mov    rax,QWORD PTR [rbp-0x18]
    3387:	4c 89 e7             	mov    rdi,r12
    338a:	48 8b 0d 07 69 00 00 	mov    rcx,QWORD PTR [rip+0x6907]        # 9c98 <_ZTTNSt7__cxx1119basic_ostringstreamIcSt11char_traitsIcESaIcEEE@GLIBCXX_3.4.21+0x10>
    3391:	48 89 ac 24 10 01 00 	mov    QWORD PTR [rsp+0x110],rbp
    3398:	00 
    3399:	48 89 8c 04 10 01 00 	mov    QWORD PTR [rsp+rax*1+0x110],rcx
    33a0:	00 
    33a1:	4c 89 ac 24 80 01 00 	mov    QWORD PTR [rsp+0x180],r13
    33a8:	00 
    33a9:	e8 b2 ec ff ff       	call   2060 <_ZNSt8ios_baseD2Ev@plt>
    33ae:	48 8b 54 24 78       	mov    rdx,QWORD PTR [rsp+0x78]
    33b3:	48 8b 74 24 70       	mov    rsi,QWORD PTR [rsp+0x70]
    33b8:	48 8d 3d 81 6c 00 00 	lea    rdi,[rip+0x6c81]        # a040 <_ZSt4cout@GLIBCXX_3.4>
    33bf:	e8 dc ec ff ff       	call   20a0 <_ZSt16__ostream_insertIcSt11char_traitsIcEERSt13basic_ostreamIT_T0_ES6_PKS3_l@plt>
    33c4:	c6 44 24 4f 0a       	mov    BYTE PTR [rsp+0x4f],0xa
    33c9:	48 89 c7             	mov    rdi,rax
    33cc:	48 8b 00             	mov    rax,QWORD PTR [rax]
    33cf:	48 8b 40 e8          	mov    rax,QWORD PTR [rax-0x18]
    33d3:	48 83 7c 07 10 00    	cmp    QWORD PTR [rdi+rax*1+0x10],0x0
    33d9:	0f 85 71 18 00 00    	jne    4c50 <_Z16AvxPackedMathF64v+0x1bd0>
    33df:	be 0a 00 00 00       	mov    esi,0xa
    33e4:	e8 47 ec ff ff       	call   2030 <_ZNSo3putEc@plt>
    33e9:	48 8b 7c 24 70       	mov    rdi,QWORD PTR [rsp+0x70]
    33ee:	48 8b 04 24          	mov    rax,QWORD PTR [rsp]
    33f2:	48 39 c7             	cmp    rdi,rax
    33f5:	74 11                	je     3408 <_Z16AvxPackedMathF64v+0x388>
    33f7:	48 8b 84 24 80 00 00 	mov    rax,QWORD PTR [rsp+0x80]
    33fe:	00 
    33ff:	48 8d 70 01          	lea    rsi,[rax+0x1]
    3403:	e8 78 ec ff ff       	call   2080 <_ZdlPvm@plt>
    3408:	48 8d 35 47 4c 00 00 	lea    rsi,[rip+0x4c47]        # 8056 <_IO_stdin_used+0x56>
    340f:	ba 09 00 00 00       	mov    edx,0x9
    3414:	48 8d 3d 25 6c 00 00 	lea    rdi,[rip+0x6c25]        # a040 <_ZSt4cout@GLIBCXX_3.4>
    341b:	e8 80 ec ff ff       	call   20a0 <_ZSt16__ostream_insertIcSt11char_traitsIcEERSt13basic_ostreamIT_T0_ES6_PKS3_l@plt>
    3420:	4c 89 e7             	mov    rdi,r12
    3423:	e8 28 ec ff ff       	call   2050 <_ZNSt8ios_baseC2Ev@plt>
    3428:	66 0f ef c0          	pxor   xmm0,xmm0
    342c:	45 31 db             	xor    r11d,r11d
    342f:	31 f6                	xor    esi,esi
    3431:	66 44 89 9c 24 60 02 	mov    WORD PTR [rsp+0x260],r11w
    3438:	00 00 
    343a:	48 8b 05 57 68 00 00 	mov    rax,QWORD PTR [rip+0x6857]        # 9c98 <_ZTTNSt7__cxx1119basic_ostringstreamIcSt11char_traitsIcESaIcEEE@GLIBCXX_3.4.21+0x10>
    3441:	0f 11 84 24 68 02 00 	movups XMMWORD PTR [rsp+0x268],xmm0
    3448:	00 
    3449:	0f 11 84 24 78 02 00 	movups XMMWORD PTR [rsp+0x278],xmm0
    3450:	00 
    3451:	48 8b 7d e8          	mov    rdi,QWORD PTR [rbp-0x18]
    3455:	4c 89 ac 24 80 01 00 	mov    QWORD PTR [rsp+0x180],r13
    345c:	00 
    345d:	48 01 df             	add    rdi,rbx
    3460:	48 89 ac 24 10 01 00 	mov    QWORD PTR [rsp+0x110],rbp
    3467:	00 
    3468:	48 c7 84 24 58 02 00 	mov    QWORD PTR [rsp+0x258],0x0
    346f:	00 00 00 00 00 
    3474:	48 89 07             	mov    QWORD PTR [rdi],rax
    3477:	e8 44 ec ff ff       	call   20c0 <_ZNSt9basic_iosIcSt11char_traitsIcEE4initEPSt15basic_streambufIcS1_E@plt>
    347c:	66 0f 6f 64 24 10    	movdqa xmm4,XMMWORD PTR [rsp+0x10]
    3482:	48 8b 7c 24 08       	mov    rdi,QWORD PTR [rsp+0x8]
    3487:	66 0f ef c0          	pxor   xmm0,xmm0
    348b:	4c 89 bc 24 80 01 00 	mov    QWORD PTR [rsp+0x180],r15
    3492:	00 
    3493:	0f 29 84 24 20 01 00 	movaps XMMWORD PTR [rsp+0x120],xmm0
    349a:	00 
    349b:	0f 29 a4 24 10 01 00 	movaps XMMWORD PTR [rsp+0x110],xmm4
    34a2:	00 
    34a3:	0f 29 84 24 30 01 00 	movaps XMMWORD PTR [rsp+0x130],xmm0
    34aa:	00 
    34ab:	0f 29 84 24 40 01 00 	movaps XMMWORD PTR [rsp+0x140],xmm0
    34b2:	00 
    34b3:	e8 58 ec ff ff       	call   2110 <_ZNSt6localeC1Ev@plt>
    34b8:	48 8b 74 24 38       	mov    rsi,QWORD PTR [rsp+0x38]
    34bd:	4c 89 e7             	mov    rdi,r12
    34c0:	48 8d 05 f1 67 00 00 	lea    rax,[rip+0x67f1]        # 9cb8 <_ZTVNSt7__cxx1115basic_stringbufIcSt11char_traitsIcESaIcEEE@GLIBCXX_3.4.21+0x10>
    34c7:	48 89 84 24 18 01 00 	mov    QWORD PTR [rsp+0x118],rax
    34ce:	00 
    34cf:	c7 84 24 58 01 00 00 	mov    DWORD PTR [rsp+0x158],0x10
    34d6:	10 00 00 00 
    34da:	4c 89 b4 24 60 01 00 	mov    QWORD PTR [rsp+0x160],r14
    34e1:	00 
    34e2:	48 c7 84 24 68 01 00 	mov    QWORD PTR [rsp+0x168],0x0
    34e9:	00 00 00 00 00 
    34ee:	c6 84 24 70 01 00 00 	mov    BYTE PTR [rsp+0x170],0x0
    34f5:	00 
    34f6:	e8 c5 eb ff ff       	call   20c0 <_ZNSt9basic_iosIcSt11char_traitsIcEE4initEPSt15basic_streambufIcS1_E@plt>
    34fb:	48 8b 8c 24 10 01 00 	mov    rcx,QWORD PTR [rsp+0x110]
    3502:	00 
    3503:	f2 0f 10 44 24 60    	movsd  xmm0,QWORD PTR [rsp+0x60]
    3509:	48 89 df             	mov    rdi,rbx
    350c:	48 8b 51 e8          	mov    rdx,QWORD PTR [rcx-0x18]
    3510:	48 01 da             	add    rdx,rbx
    3513:	8b 42 18             	mov    eax,DWORD PTR [rdx+0x18]
    3516:	48 c7 42 08 0c 00 00 	mov    QWORD PTR [rdx+0x8],0xc
    351d:	00 
    351e:	25 fb fe ff ff       	and    eax,0xfffffefb
    3523:	83 c8 04             	or     eax,0x4
    3526:	89 42 18             	mov    DWORD PTR [rdx+0x18],eax
    3529:	48 8b 41 e8          	mov    rax,QWORD PTR [rcx-0x18]
    352d:	48 c7 84 04 20 01 00 	mov    QWORD PTR [rsp+rax*1+0x120],0x20
    3534:	00 20 00 00 00 
    3539:	e8 b2 eb ff ff       	call   20f0 <_ZNSo9_M_insertIdEERSoT_@plt>
    353e:	ba 04 00 00 00       	mov    edx,0x4
    3543:	48 8d 35 07 4b 00 00 	lea    rsi,[rip+0x4b07]        # 8051 <_IO_stdin_used+0x51>
    354a:	48 89 df             	mov    rdi,rbx
    354d:	e8 4e eb ff ff       	call   20a0 <_ZSt16__ostream_insertIcSt11char_traitsIcEERSt13basic_ostreamIT_T0_ES6_PKS3_l@plt>
    3552:	48 8b 84 24 10 01 00 	mov    rax,QWORD PTR [rsp+0x110]
    3559:	00 
    355a:	f2 0f 10 44 24 68    	movsd  xmm0,QWORD PTR [rsp+0x68]
    3560:	48 89 df             	mov    rdi,rbx
    3563:	48 8b 40 e8          	mov    rax,QWORD PTR [rax-0x18]
    3567:	48 c7 84 04 20 01 00 	mov    QWORD PTR [rsp+rax*1+0x120],0x20
    356e:	00 20 00 00 00 
    3573:	e8 78 eb ff ff       	call   20f0 <_ZNSo9_M_insertIdEERSoT_@plt>
    3578:	48 8b 04 24          	mov    rax,QWORD PTR [rsp]
    357c:	4c 8b 84 24 40 01 00 	mov    r8,QWORD PTR [rsp+0x140]
    3583:	00 
    3584:	48 c7 44 24 78 00 00 	mov    QWORD PTR [rsp+0x78],0x0
    358b:	00 00 
    358d:	c6 84 24 80 00 00 00 	mov    BYTE PTR [rsp+0x80],0x0
    3594:	00 
    3595:	48 89 44 24 70       	mov    QWORD PTR [rsp+0x70],rax
    359a:	4d 85 c0             	test   r8,r8
    359d:	0f 84 7d 18 00 00    	je     4e20 <_Z16AvxPackedMathF64v+0x1da0>
    35a3:	48 8b 84 24 30 01 00 	mov    rax,QWORD PTR [rsp+0x130]
    35aa:	00 
    35ab:	4c 89 c2             	mov    rdx,r8
    35ae:	48 8b 7c 24 30       	mov    rdi,QWORD PTR [rsp+0x30]
    35b3:	48 8b 8c 24 38 01 00 	mov    rcx,QWORD PTR [rsp+0x138]
    35ba:	00 
    35bb:	4c 39 c0             	cmp    rax,r8
    35be:	4c 0f 43 c0          	cmovae r8,rax
    35c2:	48 85 c0             	test   rax,rax
    35c5:	4c 0f 44 c2          	cmove  r8,rdx
    35c9:	31 d2                	xor    edx,edx
    35cb:	31 f6                	xor    esi,esi
    35cd:	49 29 c8             	sub    r8,rcx
    35d0:	e8 0b eb ff ff       	call   20e0 <_ZNSt7__cxx1112basic_stringIcSt11char_traitsIcESaIcEE10_M_replaceEmmPKcm@plt>
    35d5:	66 0f 6f 6c 24 20    	movdqa xmm5,XMMWORD PTR [rsp+0x20]
    35db:	48 8b bc 24 60 01 00 	mov    rdi,QWORD PTR [rsp+0x160]
    35e2:	00 
    35e3:	4c 89 bc 24 80 01 00 	mov    QWORD PTR [rsp+0x180],r15
    35ea:	00 
    35eb:	0f 29 ac 24 10 01 00 	movaps XMMWORD PTR [rsp+0x110],xmm5
    35f2:	00 
    35f3:	4c 39 f7             	cmp    rdi,r14
    35f6:	74 11                	je     3609 <_Z16AvxPackedMathF64v+0x589>
    35f8:	48 8b 84 24 70 01 00 	mov    rax,QWORD PTR [rsp+0x170]
    35ff:	00 
    3600:	48 8d 70 01          	lea    rsi,[rax+0x1]
    3604:	e8 77 ea ff ff       	call   2080 <_ZdlPvm@plt>
    3609:	48 8b 7c 24 08       	mov    rdi,QWORD PTR [rsp+0x8]
    360e:	48 8d 05 b3 65 00 00 	lea    rax,[rip+0x65b3]        # 9bc8 <_ZTVSt15basic_streambufIcSt11char_traitsIcEE@GLIBCXX_3.4+0x10>
    3615:	48 89 84 24 18 01 00 	mov    QWORD PTR [rsp+0x118],rax
    361c:	00 
    361d:	e8 ae ea ff ff       	call   20d0 <_ZNSt6localeD1Ev@plt>
    3622:	48 8b 45 e8          	mov    rax,QWORD PTR [rbp-0x18]
    3626:	4c 89 e7             	mov    rdi,r12
    3629:	48 8b 0d 68 66 00 00 	mov    rcx,QWORD PTR [rip+0x6668]        # 9c98 <_ZTTNSt7__cxx1119basic_ostringstreamIcSt11char_traitsIcESaIcEEE@GLIBCXX_3.4.21+0x10>
    3630:	48 89 ac 24 10 01 00 	mov    QWORD PTR [rsp+0x110],rbp
    3637:	00 
    3638:	48 89 8c 04 10 01 00 	mov    QWORD PTR [rsp+rax*1+0x110],rcx
    363f:	00 
    3640:	4c 89 ac 24 80 01 00 	mov    QWORD PTR [rsp+0x180],r13
    3647:	00 
    3648:	e8 13 ea ff ff       	call   2060 <_ZNSt8ios_baseD2Ev@plt>
    364d:	48 8b 54 24 78       	mov    rdx,QWORD PTR [rsp+0x78]
    3652:	48 8b 74 24 70       	mov    rsi,QWORD PTR [rsp+0x70]
    3657:	48 8d 3d e2 69 00 00 	lea    rdi,[rip+0x69e2]        # a040 <_ZSt4cout@GLIBCXX_3.4>
    365e:	e8 3d ea ff ff       	call   20a0 <_ZSt16__ostream_insertIcSt11char_traitsIcEERSt13basic_ostreamIT_T0_ES6_PKS3_l@plt>
    3663:	c6 44 24 4f 0a       	mov    BYTE PTR [rsp+0x4f],0xa
    3668:	48 89 c7             	mov    rdi,rax
    366b:	48 8b 00             	mov    rax,QWORD PTR [rax]
    366e:	48 8b 40 e8          	mov    rax,QWORD PTR [rax-0x18]
    3672:	48 83 7c 07 10 00    	cmp    QWORD PTR [rdi+rax*1+0x10],0x0
    3678:	0f 84 22 16 00 00    	je     4ca0 <_Z16AvxPackedMathF64v+0x1c20>
    367e:	48 8d 74 24 4f       	lea    rsi,[rsp+0x4f]
    3683:	ba 01 00 00 00       	mov    edx,0x1
    3688:	e8 13 ea ff ff       	call   20a0 <_ZSt16__ostream_insertIcSt11char_traitsIcEERSt13basic_ostreamIT_T0_ES6_PKS3_l@plt>
    368d:	48 8b 7c 24 70       	mov    rdi,QWORD PTR [rsp+0x70]
    3692:	48 8b 04 24          	mov    rax,QWORD PTR [rsp]
    3696:	48 39 c7             	cmp    rdi,rax
    3699:	74 11                	je     36ac <_Z16AvxPackedMathF64v+0x62c>
    369b:	48 8b 84 24 80 00 00 	mov    rax,QWORD PTR [rsp+0x80]
    36a2:	00 
    36a3:	48 8d 70 01          	lea    rsi,[rax+0x1]
    36a7:	e8 d4 e9 ff ff       	call   2080 <_ZdlPvm@plt>
    36ac:	48 8b 05 8d 69 00 00 	mov    rax,QWORD PTR [rip+0x698d]        # a040 <_ZSt4cout@GLIBCXX_3.4>
    36b3:	c6 44 24 4f 0a       	mov    BYTE PTR [rsp+0x4f],0xa
    36b8:	48 8d 0d 81 69 00 00 	lea    rcx,[rip+0x6981]        # a040 <_ZSt4cout@GLIBCXX_3.4>
    36bf:	48 8b 40 e8          	mov    rax,QWORD PTR [rax-0x18]
    36c3:	48 83 7c 01 10 00    	cmp    QWORD PTR [rcx+rax*1+0x10],0x0
    36c9:	0f 84 b1 15 00 00    	je     4c80 <_Z16AvxPackedMathF64v+0x1c00>
    36cf:	48 8d 74 24 4f       	lea    rsi,[rsp+0x4f]
    36d4:	ba 01 00 00 00       	mov    edx,0x1
    36d9:	48 89 cf             	mov    rdi,rcx
    36dc:	e8 bf e9 ff ff       	call   20a0 <_ZSt16__ostream_insertIcSt11char_traitsIcEERSt13basic_ostreamIT_T0_ES6_PKS3_l@plt>
    36e1:	48 8d 35 78 49 00 00 	lea    rsi,[rip+0x4978]        # 8060 <_IO_stdin_used+0x60>
    36e8:	ba 09 00 00 00       	mov    edx,0x9
    36ed:	48 8d 3d 4c 69 00 00 	lea    rdi,[rip+0x694c]        # a040 <_ZSt4cout@GLIBCXX_3.4>
    36f4:	e8 a7 e9 ff ff       	call   20a0 <_ZSt16__ostream_insertIcSt11char_traitsIcEERSt13basic_ostreamIT_T0_ES6_PKS3_l@plt>
    36f9:	4c 89 e7             	mov    rdi,r12
    36fc:	e8 4f e9 ff ff       	call   2050 <_ZNSt8ios_baseC2Ev@plt>
    3701:	66 0f ef c0          	pxor   xmm0,xmm0
    3705:	45 31 d2             	xor    r10d,r10d
    3708:	31 f6                	xor    esi,esi
    370a:	66 44 89 94 24 60 02 	mov    WORD PTR [rsp+0x260],r10w
    3711:	00 00 
    3713:	48 8b 05 7e 65 00 00 	mov    rax,QWORD PTR [rip+0x657e]        # 9c98 <_ZTTNSt7__cxx1119basic_ostringstreamIcSt11char_traitsIcESaIcEEE@GLIBCXX_3.4.21+0x10>
    371a:	0f 11 84 24 68 02 00 	movups XMMWORD PTR [rsp+0x268],xmm0
    3721:	00 
    3722:	0f 11 84 24 78 02 00 	movups XMMWORD PTR [rsp+0x278],xmm0
    3729:	00 
    372a:	48 8b 7d e8          	mov    rdi,QWORD PTR [rbp-0x18]
    372e:	4c 89 ac 24 80 01 00 	mov    QWORD PTR [rsp+0x180],r13
    3735:	00 
    3736:	48 01 df             	add    rdi,rbx
    3739:	48 89 ac 24 10 01 00 	mov    QWORD PTR [rsp+0x110],rbp
    3740:	00 
    3741:	48 c7 84 24 58 02 00 	mov    QWORD PTR [rsp+0x258],0x0
    3748:	00 00 00 00 00 
    374d:	48 89 07             	mov    QWORD PTR [rdi],rax
    3750:	e8 6b e9 ff ff       	call   20c0 <_ZNSt9basic_iosIcSt11char_traitsIcEE4initEPSt15basic_streambufIcS1_E@plt>
    3755:	66 0f 6f 74 24 10    	movdqa xmm6,XMMWORD PTR [rsp+0x10]
    375b:	48 8b 7c 24 08       	mov    rdi,QWORD PTR [rsp+0x8]
    3760:	66 0f ef c0          	pxor   xmm0,xmm0
    3764:	4c 89 bc 24 80 01 00 	mov    QWORD PTR [rsp+0x180],r15
    376b:	00 
    376c:	0f 29 84 24 20 01 00 	movaps XMMWORD PTR [rsp+0x120],xmm0
    3773:	00 
    3774:	0f 29 b4 24 10 01 00 	movaps XMMWORD PTR [rsp+0x110],xmm6
    377b:	00 
    377c:	0f 29 84 24 30 01 00 	movaps XMMWORD PTR [rsp+0x130],xmm0
    3783:	00 
    3784:	0f 29 84 24 40 01 00 	movaps XMMWORD PTR [rsp+0x140],xmm0
    378b:	00 
    378c:	e8 7f e9 ff ff       	call   2110 <_ZNSt6localeC1Ev@plt>
    3791:	48 8b 74 24 38       	mov    rsi,QWORD PTR [rsp+0x38]
    3796:	4c 89 e7             	mov    rdi,r12
    3799:	48 8d 05 18 65 00 00 	lea    rax,[rip+0x6518]        # 9cb8 <_ZTVNSt7__cxx1115basic_stringbufIcSt11char_traitsIcESaIcEEE@GLIBCXX_3.4.21+0x10>
    37a0:	48 89 84 24 18 01 00 	mov    QWORD PTR [rsp+0x118],rax
    37a7:	00 
    37a8:	c7 84 24 58 01 00 00 	mov    DWORD PTR [rsp+0x158],0x10
    37af:	10 00 00 00 
    37b3:	4c 89 b4 24 60 01 00 	mov    QWORD PTR [rsp+0x160],r14
    37ba:	00 
    37bb:	48 c7 84 24 68 01 00 	mov    QWORD PTR [rsp+0x168],0x0
    37c2:	00 00 00 00 00 
    37c7:	c6 84 24 70 01 00 00 	mov    BYTE PTR [rsp+0x170],0x0
    37ce:	00 
    37cf:	e8 ec e8 ff ff       	call   20c0 <_ZNSt9basic_iosIcSt11char_traitsIcEE4initEPSt15basic_streambufIcS1_E@plt>
    37d4:	48 8b 8c 24 10 01 00 	mov    rcx,QWORD PTR [rsp+0x110]
    37db:	00 
    37dc:	48 89 df             	mov    rdi,rbx
    37df:	f2 0f 10 84 24 90 00 	movsd  xmm0,QWORD PTR [rsp+0x90]
    37e6:	00 00 
    37e8:	48 8b 51 e8          	mov    rdx,QWORD PTR [rcx-0x18]
    37ec:	48 01 da             	add    rdx,rbx
    37ef:	8b 42 18             	mov    eax,DWORD PTR [rdx+0x18]
    37f2:	48 c7 42 08 0c 00 00 	mov    QWORD PTR [rdx+0x8],0xc
    37f9:	00 
    37fa:	25 fb fe ff ff       	and    eax,0xfffffefb
    37ff:	83 c8 04             	or     eax,0x4
    3802:	89 42 18             	mov    DWORD PTR [rdx+0x18],eax
    3805:	48 8b 41 e8          	mov    rax,QWORD PTR [rcx-0x18]
    3809:	48 c7 84 04 20 01 00 	mov    QWORD PTR [rsp+rax*1+0x120],0x20
    3810:	00 20 00 00 00 
    3815:	e8 d6 e8 ff ff       	call   20f0 <_ZNSo9_M_insertIdEERSoT_@plt>
    381a:	ba 04 00 00 00       	mov    edx,0x4
    381f:	48 8d 35 2b 48 00 00 	lea    rsi,[rip+0x482b]        # 8051 <_IO_stdin_used+0x51>
    3826:	48 89 df             	mov    rdi,rbx
    3829:	e8 72 e8 ff ff       	call   20a0 <_ZSt16__ostream_insertIcSt11char_traitsIcEERSt13basic_ostreamIT_T0_ES6_PKS3_l@plt>
    382e:	48 8b 84 24 10 01 00 	mov    rax,QWORD PTR [rsp+0x110]
    3835:	00 
    3836:	48 89 df             	mov    rdi,rbx
    3839:	f2 0f 10 84 24 98 00 	movsd  xmm0,QWORD PTR [rsp+0x98]
    3840:	00 00 
    3842:	48 8b 40 e8          	mov    rax,QWORD PTR [rax-0x18]
    3846:	48 c7 84 04 20 01 00 	mov    QWORD PTR [rsp+rax*1+0x120],0x20
    384d:	00 20 00 00 00 
    3852:	e8 99 e8 ff ff       	call   20f0 <_ZNSo9_M_insertIdEERSoT_@plt>
    3857:	48 8b 04 24          	mov    rax,QWORD PTR [rsp]
    385b:	4c 8b 84 24 40 01 00 	mov    r8,QWORD PTR [rsp+0x140]
    3862:	00 
    3863:	48 c7 44 24 78 00 00 	mov    QWORD PTR [rsp+0x78],0x0
    386a:	00 00 
    386c:	c6 84 24 80 00 00 00 	mov    BYTE PTR [rsp+0x80],0x0
    3873:	00 
    3874:	48 89 44 24 70       	mov    QWORD PTR [rsp+0x70],rax
    3879:	4d 85 c0             	test   r8,r8
    387c:	0f 84 be 15 00 00    	je     4e40 <_Z16AvxPackedMathF64v+0x1dc0>
    3882:	48 8b 84 24 30 01 00 	mov    rax,QWORD PTR [rsp+0x130]
    3889:	00 
    388a:	4c 89 c2             	mov    rdx,r8
    388d:	48 8b 7c 24 30       	mov    rdi,QWORD PTR [rsp+0x30]
    3892:	48 8b 8c 24 38 01 00 	mov    rcx,QWORD PTR [rsp+0x138]
    3899:	00 
    389a:	4c 39 c0             	cmp    rax,r8
    389d:	4c 0f 43 c0          	cmovae r8,rax
    38a1:	48 85 c0             	test   rax,rax
    38a4:	4c 0f 44 c2          	cmove  r8,rdx
    38a8:	31 d2                	xor    edx,edx
    38aa:	31 f6                	xor    esi,esi
    38ac:	49 29 c8             	sub    r8,rcx
    38af:	e8 2c e8 ff ff       	call   20e0 <_ZNSt7__cxx1112basic_stringIcSt11char_traitsIcESaIcEE10_M_replaceEmmPKcm@plt>
    38b4:	66 0f 6f 7c 24 20    	movdqa xmm7,XMMWORD PTR [rsp+0x20]
    38ba:	48 8b bc 24 60 01 00 	mov    rdi,QWORD PTR [rsp+0x160]
    38c1:	00 
    38c2:	4c 89 bc 24 80 01 00 	mov    QWORD PTR [rsp+0x180],r15
    38c9:	00 
    38ca:	0f 29 bc 24 10 01 00 	movaps XMMWORD PTR [rsp+0x110],xmm7
    38d1:	00 
    38d2:	4c 39 f7             	cmp    rdi,r14
    38d5:	74 11                	je     38e8 <_Z16AvxPackedMathF64v+0x868>
    38d7:	48 8b 84 24 70 01 00 	mov    rax,QWORD PTR [rsp+0x170]
    38de:	00 
    38df:	48 8d 70 01          	lea    rsi,[rax+0x1]
    38e3:	e8 98 e7 ff ff       	call   2080 <_ZdlPvm@plt>
    38e8:	48 8b 7c 24 08       	mov    rdi,QWORD PTR [rsp+0x8]
    38ed:	48 8d 05 d4 62 00 00 	lea    rax,[rip+0x62d4]        # 9bc8 <_ZTVSt15basic_streambufIcSt11char_traitsIcEE@GLIBCXX_3.4+0x10>
    38f4:	48 89 84 24 18 01 00 	mov    QWORD PTR [rsp+0x118],rax
    38fb:	00 
    38fc:	e8 cf e7 ff ff       	call   20d0 <_ZNSt6localeD1Ev@plt>
    3901:	48 8b 45 e8          	mov    rax,QWORD PTR [rbp-0x18]
    3905:	4c 89 e7             	mov    rdi,r12
    3908:	48 8b 0d 89 63 00 00 	mov    rcx,QWORD PTR [rip+0x6389]        # 9c98 <_ZTTNSt7__cxx1119basic_ostringstreamIcSt11char_traitsIcESaIcEEE@GLIBCXX_3.4.21+0x10>
    390f:	48 89 ac 24 10 01 00 	mov    QWORD PTR [rsp+0x110],rbp
    3916:	00 
    3917:	48 89 8c 04 10 01 00 	mov    QWORD PTR [rsp+rax*1+0x110],rcx
    391e:	00 
    391f:	4c 89 ac 24 80 01 00 	mov    QWORD PTR [rsp+0x180],r13
    3926:	00 
    3927:	e8 34 e7 ff ff       	call   2060 <_ZNSt8ios_baseD2Ev@plt>
    392c:	48 8b 54 24 78       	mov    rdx,QWORD PTR [rsp+0x78]
    3931:	48 8b 74 24 70       	mov    rsi,QWORD PTR [rsp+0x70]
    3936:	48 8d 3d 03 67 00 00 	lea    rdi,[rip+0x6703]        # a040 <_ZSt4cout@GLIBCXX_3.4>
    393d:	e8 5e e7 ff ff       	call   20a0 <_ZSt16__ostream_insertIcSt11char_traitsIcEERSt13basic_ostreamIT_T0_ES6_PKS3_l@plt>
    3942:	c6 44 24 4f 0a       	mov    BYTE PTR [rsp+0x4f],0xa
    3947:	48 89 c7             	mov    rdi,rax
    394a:	48 8b 00             	mov    rax,QWORD PTR [rax]
    394d:	48 8b 40 e8          	mov    rax,QWORD PTR [rax-0x18]
    3951:	48 83 7c 07 10 00    	cmp    QWORD PTR [rdi+rax*1+0x10],0x0
    3957:	0f 84 0b 13 00 00    	je     4c68 <_Z16AvxPackedMathF64v+0x1be8>
    395d:	48 8d 74 24 4f       	lea    rsi,[rsp+0x4f]
    3962:	ba 01 00 00 00       	mov    edx,0x1
    3967:	e8 34 e7 ff ff       	call   20a0 <_ZSt16__ostream_insertIcSt11char_traitsIcEERSt13basic_ostreamIT_T0_ES6_PKS3_l@plt>
    396c:	48 8b 7c 24 70       	mov    rdi,QWORD PTR [rsp+0x70]
    3971:	48 8b 04 24          	mov    rax,QWORD PTR [rsp]
    3975:	48 39 c7             	cmp    rdi,rax
    3978:	74 11                	je     398b <_Z16AvxPackedMathF64v+0x90b>
    397a:	48 8b 84 24 80 00 00 	mov    rax,QWORD PTR [rsp+0x80]
    3981:	00 
    3982:	48 8d 70 01          	lea    rsi,[rax+0x1]
    3986:	e8 f5 e6 ff ff       	call   2080 <_ZdlPvm@plt>
    398b:	48 8d 35 d8 46 00 00 	lea    rsi,[rip+0x46d8]        # 806a <_IO_stdin_used+0x6a>
    3992:	ba 09 00 00 00       	mov    edx,0x9
    3997:	48 8d 3d a2 66 00 00 	lea    rdi,[rip+0x66a2]        # a040 <_ZSt4cout@GLIBCXX_3.4>
    399e:	e8 fd e6 ff ff       	call   20a0 <_ZSt16__ostream_insertIcSt11char_traitsIcEERSt13basic_ostreamIT_T0_ES6_PKS3_l@plt>
    39a3:	4c 89 e7             	mov    rdi,r12
    39a6:	e8 a5 e6 ff ff       	call   2050 <_ZNSt8ios_baseC2Ev@plt>
    39ab:	66 0f ef c0          	pxor   xmm0,xmm0
    39af:	45 31 c9             	xor    r9d,r9d
    39b2:	31 f6                	xor    esi,esi
    39b4:	66 44 89 8c 24 60 02 	mov    WORD PTR [rsp+0x260],r9w
    39bb:	00 00 
    39bd:	48 8b 05 d4 62 00 00 	mov    rax,QWORD PTR [rip+0x62d4]        # 9c98 <_ZTTNSt7__cxx1119basic_ostringstreamIcSt11char_traitsIcESaIcEEE@GLIBCXX_3.4.21+0x10>
    39c4:	0f 11 84 24 68 02 00 	movups XMMWORD PTR [rsp+0x268],xmm0
    39cb:	00 
    39cc:	0f 11 84 24 78 02 00 	movups XMMWORD PTR [rsp+0x278],xmm0
    39d3:	00 
    39d4:	48 8b 7d e8          	mov    rdi,QWORD PTR [rbp-0x18]
    39d8:	4c 89 ac 24 80 01 00 	mov    QWORD PTR [rsp+0x180],r13
    39df:	00 
    39e0:	48 01 df             	add    rdi,rbx
    39e3:	48 89 ac 24 10 01 00 	mov    QWORD PTR [rsp+0x110],rbp
    39ea:	00 
    39eb:	48 c7 84 24 58 02 00 	mov    QWORD PTR [rsp+0x258],0x0
    39f2:	00 00 00 00 00 
    39f7:	48 89 07             	mov    QWORD PTR [rdi],rax
    39fa:	e8 c1 e6 ff ff       	call   20c0 <_ZNSt9basic_iosIcSt11char_traitsIcEE4initEPSt15basic_streambufIcS1_E@plt>
    39ff:	66 0f 6f 74 24 10    	movdqa xmm6,XMMWORD PTR [rsp+0x10]
    3a05:	48 8b 7c 24 08       	mov    rdi,QWORD PTR [rsp+0x8]
    3a0a:	66 0f ef c0          	pxor   xmm0,xmm0
    3a0e:	4c 89 bc 24 80 01 00 	mov    QWORD PTR [rsp+0x180],r15
    3a15:	00 
    3a16:	0f 29 84 24 20 01 00 	movaps XMMWORD PTR [rsp+0x120],xmm0
    3a1d:	00 
    3a1e:	0f 29 b4 24 10 01 00 	movaps XMMWORD PTR [rsp+0x110],xmm6
    3a25:	00 
    3a26:	0f 29 84 24 30 01 00 	movaps XMMWORD PTR [rsp+0x130],xmm0
    3a2d:	00 
    3a2e:	0f 29 84 24 40 01 00 	movaps XMMWORD PTR [rsp+0x140],xmm0
    3a35:	00 
    3a36:	e8 d5 e6 ff ff       	call   2110 <_ZNSt6localeC1Ev@plt>
    3a3b:	48 8b 74 24 38       	mov    rsi,QWORD PTR [rsp+0x38]
    3a40:	4c 89 e7             	mov    rdi,r12
    3a43:	48 8d 05 6e 62 00 00 	lea    rax,[rip+0x626e]        # 9cb8 <_ZTVNSt7__cxx1115basic_stringbufIcSt11char_traitsIcESaIcEEE@GLIBCXX_3.4.21+0x10>
    3a4a:	48 89 84 24 18 01 00 	mov    QWORD PTR [rsp+0x118],rax
    3a51:	00 
    3a52:	c7 84 24 58 01 00 00 	mov    DWORD PTR [rsp+0x158],0x10
    3a59:	10 00 00 00 
    3a5d:	4c 89 b4 24 60 01 00 	mov    QWORD PTR [rsp+0x160],r14
    3a64:	00 
    3a65:	48 c7 84 24 68 01 00 	mov    QWORD PTR [rsp+0x168],0x0
    3a6c:	00 00 00 00 00 
    3a71:	c6 84 24 70 01 00 00 	mov    BYTE PTR [rsp+0x170],0x0
    3a78:	00 
    3a79:	e8 42 e6 ff ff       	call   20c0 <_ZNSt9basic_iosIcSt11char_traitsIcEE4initEPSt15basic_streambufIcS1_E@plt>
    3a7e:	48 8b 8c 24 10 01 00 	mov    rcx,QWORD PTR [rsp+0x110]
    3a85:	00 
    3a86:	48 89 df             	mov    rdi,rbx
    3a89:	f2 0f 10 84 24 a0 00 	movsd  xmm0,QWORD PTR [rsp+0xa0]
    3a90:	00 00 
    3a92:	48 8b 51 e8          	mov    rdx,QWORD PTR [rcx-0x18]
    3a96:	48 01 da             	add    rdx,rbx
    3a99:	8b 42 18             	mov    eax,DWORD PTR [rdx+0x18]
    3a9c:	48 c7 42 08 0c 00 00 	mov    QWORD PTR [rdx+0x8],0xc
    3aa3:	00 
    3aa4:	25 fb fe ff ff       	and    eax,0xfffffefb
    3aa9:	83 c8 04             	or     eax,0x4
    3aac:	89 42 18             	mov    DWORD PTR [rdx+0x18],eax
    3aaf:	48 8b 41 e8          	mov    rax,QWORD PTR [rcx-0x18]
    3ab3:	48 c7 84 04 20 01 00 	mov    QWORD PTR [rsp+rax*1+0x120],0x20
    3aba:	00 20 00 00 00 
    3abf:	e8 2c e6 ff ff       	call   20f0 <_ZNSo9_M_insertIdEERSoT_@plt>
    3ac4:	ba 04 00 00 00       	mov    edx,0x4
    3ac9:	48 8d 35 81 45 00 00 	lea    rsi,[rip+0x4581]        # 8051 <_IO_stdin_used+0x51>
    3ad0:	48 89 df             	mov    rdi,rbx
    3ad3:	e8 c8 e5 ff ff       	call   20a0 <_ZSt16__ostream_insertIcSt11char_traitsIcEERSt13basic_ostreamIT_T0_ES6_PKS3_l@plt>
    3ad8:	48 8b 84 24 10 01 00 	mov    rax,QWORD PTR [rsp+0x110]
    3adf:	00 
    3ae0:	48 89 df             	mov    rdi,rbx
    3ae3:	f2 0f 10 84 24 a8 00 	movsd  xmm0,QWORD PTR [rsp+0xa8]
    3aea:	00 00 
    3aec:	48 8b 40 e8          	mov    rax,QWORD PTR [rax-0x18]
    3af0:	48 c7 84 04 20 01 00 	mov    QWORD PTR [rsp+rax*1+0x120],0x20
    3af7:	00 20 00 00 00 
    3afc:	e8 ef e5 ff ff       	call   20f0 <_ZNSo9_M_insertIdEERSoT_@plt>
    3b01:	48 8b 04 24          	mov    rax,QWORD PTR [rsp]
    3b05:	4c 8b 84 24 40 01 00 	mov    r8,QWORD PTR [rsp+0x140]
    3b0c:	00 
    3b0d:	48 c7 44 24 78 00 00 	mov    QWORD PTR [rsp+0x78],0x0
    3b14:	00 00 
    3b16:	c6 84 24 80 00 00 00 	mov    BYTE PTR [rsp+0x80],0x0
    3b1d:	00 
    3b1e:	48 89 44 24 70       	mov    QWORD PTR [rsp+0x70],rax
    3b23:	4d 85 c0             	test   r8,r8
    3b26:	0f 84 d4 12 00 00    	je     4e00 <_Z16AvxPackedMathF64v+0x1d80>
    3b2c:	48 8b 84 24 30 01 00 	mov    rax,QWORD PTR [rsp+0x130]
    3b33:	00 
    3b34:	4c 89 c2             	mov    rdx,r8
    3b37:	48 8b 7c 24 30       	mov    rdi,QWORD PTR [rsp+0x30]
    3b3c:	48 8b 8c 24 38 01 00 	mov    rcx,QWORD PTR [rsp+0x138]
    3b43:	00 
    3b44:	4c 39 c0             	cmp    rax,r8
    3b47:	4c 0f 43 c0          	cmovae r8,rax
    3b4b:	48 85 c0             	test   rax,rax
    3b4e:	4c 0f 44 c2          	cmove  r8,rdx
    3b52:	31 d2                	xor    edx,edx
    3b54:	31 f6                	xor    esi,esi
    3b56:	49 29 c8             	sub    r8,rcx
    3b59:	e8 82 e5 ff ff       	call   20e0 <_ZNSt7__cxx1112basic_stringIcSt11char_traitsIcESaIcEE10_M_replaceEmmPKcm@plt>
    3b5e:	66 0f 6f 7c 24 20    	movdqa xmm7,XMMWORD PTR [rsp+0x20]
    3b64:	48 8b bc 24 60 01 00 	mov    rdi,QWORD PTR [rsp+0x160]
    3b6b:	00 
    3b6c:	4c 89 bc 24 80 01 00 	mov    QWORD PTR [rsp+0x180],r15
    3b73:	00 
    3b74:	0f 29 bc 24 10 01 00 	movaps XMMWORD PTR [rsp+0x110],xmm7
    3b7b:	00 
    3b7c:	4c 39 f7             	cmp    rdi,r14
    3b7f:	74 11                	je     3b92 <_Z16AvxPackedMathF64v+0xb12>
    3b81:	48 8b 84 24 70 01 00 	mov    rax,QWORD PTR [rsp+0x170]
    3b88:	00 
    3b89:	48 8d 70 01          	lea    rsi,[rax+0x1]
    3b8d:	e8 ee e4 ff ff       	call   2080 <_ZdlPvm@plt>
    3b92:	48 8b 7c 24 08       	mov    rdi,QWORD PTR [rsp+0x8]
    3b97:	48 8d 05 2a 60 00 00 	lea    rax,[rip+0x602a]        # 9bc8 <_ZTVSt15basic_streambufIcSt11char_traitsIcEE@GLIBCXX_3.4+0x10>
    3b9e:	48 89 84 24 18 01 00 	mov    QWORD PTR [rsp+0x118],rax
    3ba5:	00 
    3ba6:	e8 25 e5 ff ff       	call   20d0 <_ZNSt6localeD1Ev@plt>
    3bab:	48 8b 45 e8          	mov    rax,QWORD PTR [rbp-0x18]
    3baf:	4c 89 e7             	mov    rdi,r12
    3bb2:	48 8b 0d df 60 00 00 	mov    rcx,QWORD PTR [rip+0x60df]        # 9c98 <_ZTTNSt7__cxx1119basic_ostringstreamIcSt11char_traitsIcESaIcEEE@GLIBCXX_3.4.21+0x10>
    3bb9:	48 89 ac 24 10 01 00 	mov    QWORD PTR [rsp+0x110],rbp
    3bc0:	00 
    3bc1:	48 89 8c 04 10 01 00 	mov    QWORD PTR [rsp+rax*1+0x110],rcx
    3bc8:	00 
    3bc9:	4c 89 ac 24 80 01 00 	mov    QWORD PTR [rsp+0x180],r13
    3bd0:	00 
    3bd1:	e8 8a e4 ff ff       	call   2060 <_ZNSt8ios_baseD2Ev@plt>
    3bd6:	48 8b 54 24 78       	mov    rdx,QWORD PTR [rsp+0x78]
    3bdb:	48 8b 74 24 70       	mov    rsi,QWORD PTR [rsp+0x70]
    3be0:	48 8d 3d 59 64 00 00 	lea    rdi,[rip+0x6459]        # a040 <_ZSt4cout@GLIBCXX_3.4>
    3be7:	e8 b4 e4 ff ff       	call   20a0 <_ZSt16__ostream_insertIcSt11char_traitsIcEERSt13basic_ostreamIT_T0_ES6_PKS3_l@plt>
    3bec:	c6 44 24 4f 0a       	mov    BYTE PTR [rsp+0x4f],0xa
    3bf1:	48 89 c7             	mov    rdi,rax
    3bf4:	48 8b 00             	mov    rax,QWORD PTR [rax]
    3bf7:	48 8b 40 e8          	mov    rax,QWORD PTR [rax-0x18]
    3bfb:	48 83 7c 07 10 00    	cmp    QWORD PTR [rdi+rax*1+0x10],0x0
    3c01:	0f 84 b9 10 00 00    	je     4cc0 <_Z16AvxPackedMathF64v+0x1c40>
    3c07:	48 8d 74 24 4f       	lea    rsi,[rsp+0x4f]
    3c0c:	ba 01 00 00 00       	mov    edx,0x1
    3c11:	e8 8a e4 ff ff       	call   20a0 <_ZSt16__ostream_insertIcSt11char_traitsIcEERSt13basic_ostreamIT_T0_ES6_PKS3_l@plt>
    3c16:	48 8b 7c 24 70       	mov    rdi,QWORD PTR [rsp+0x70]
    3c1b:	48 8b 04 24          	mov    rax,QWORD PTR [rsp]
    3c1f:	48 39 c7             	cmp    rdi,rax
    3c22:	74 11                	je     3c35 <_Z16AvxPackedMathF64v+0xbb5>
    3c24:	48 8b 84 24 80 00 00 	mov    rax,QWORD PTR [rsp+0x80]
    3c2b:	00 
    3c2c:	48 8d 70 01          	lea    rsi,[rax+0x1]
    3c30:	e8 4b e4 ff ff       	call   2080 <_ZdlPvm@plt>
    3c35:	48 8d 35 38 44 00 00 	lea    rsi,[rip+0x4438]        # 8074 <_IO_stdin_used+0x74>
    3c3c:	ba 09 00 00 00       	mov    edx,0x9
    3c41:	48 8d 3d f8 63 00 00 	lea    rdi,[rip+0x63f8]        # a040 <_ZSt4cout@GLIBCXX_3.4>
    3c48:	e8 53 e4 ff ff       	call   20a0 <_ZSt16__ostream_insertIcSt11char_traitsIcEERSt13basic_ostreamIT_T0_ES6_PKS3_l@plt>
    3c4d:	4c 89 e7             	mov    rdi,r12
    3c50:	e8 fb e3 ff ff       	call   2050 <_ZNSt8ios_baseC2Ev@plt>
    3c55:	66 0f ef c0          	pxor   xmm0,xmm0
    3c59:	45 31 c0             	xor    r8d,r8d
    3c5c:	31 f6                	xor    esi,esi
    3c5e:	66 44 89 84 24 60 02 	mov    WORD PTR [rsp+0x260],r8w
    3c65:	00 00 
    3c67:	48 8b 05 2a 60 00 00 	mov    rax,QWORD PTR [rip+0x602a]        # 9c98 <_ZTTNSt7__cxx1119basic_ostringstreamIcSt11char_traitsIcESaIcEEE@GLIBCXX_3.4.21+0x10>
    3c6e:	0f 11 84 24 68 02 00 	movups XMMWORD PTR [rsp+0x268],xmm0
    3c75:	00 
    3c76:	0f 11 84 24 78 02 00 	movups XMMWORD PTR [rsp+0x278],xmm0
    3c7d:	00 
    3c7e:	48 8b 7d e8          	mov    rdi,QWORD PTR [rbp-0x18]
    3c82:	4c 89 ac 24 80 01 00 	mov    QWORD PTR [rsp+0x180],r13
    3c89:	00 
    3c8a:	48 01 df             	add    rdi,rbx
    3c8d:	48 89 ac 24 10 01 00 	mov    QWORD PTR [rsp+0x110],rbp
    3c94:	00 
    3c95:	48 c7 84 24 58 02 00 	mov    QWORD PTR [rsp+0x258],0x0
    3c9c:	00 00 00 00 00 
    3ca1:	48 89 07             	mov    QWORD PTR [rdi],rax
    3ca4:	e8 17 e4 ff ff       	call   20c0 <_ZNSt9basic_iosIcSt11char_traitsIcEE4initEPSt15basic_streambufIcS1_E@plt>
    3ca9:	66 0f 6f 5c 24 10    	movdqa xmm3,XMMWORD PTR [rsp+0x10]
    3caf:	48 8b 7c 24 08       	mov    rdi,QWORD PTR [rsp+0x8]
    3cb4:	66 0f ef c0          	pxor   xmm0,xmm0
    3cb8:	4c 89 bc 24 80 01 00 	mov    QWORD PTR [rsp+0x180],r15
    3cbf:	00 
    3cc0:	0f 29 84 24 20 01 00 	movaps XMMWORD PTR [rsp+0x120],xmm0
    3cc7:	00 
    3cc8:	0f 29 9c 24 10 01 00 	movaps XMMWORD PTR [rsp+0x110],xmm3
    3ccf:	00 
    3cd0:	0f 29 84 24 30 01 00 	movaps XMMWORD PTR [rsp+0x130],xmm0
    3cd7:	00 
    3cd8:	0f 29 84 24 40 01 00 	movaps XMMWORD PTR [rsp+0x140],xmm0
    3cdf:	00 
    3ce0:	e8 2b e4 ff ff       	call   2110 <_ZNSt6localeC1Ev@plt>
    3ce5:	48 8b 74 24 38       	mov    rsi,QWORD PTR [rsp+0x38]
    3cea:	4c 89 e7             	mov    rdi,r12
    3ced:	48 8d 05 c4 5f 00 00 	lea    rax,[rip+0x5fc4]        # 9cb8 <_ZTVNSt7__cxx1115basic_stringbufIcSt11char_traitsIcESaIcEEE@GLIBCXX_3.4.21+0x10>
    3cf4:	48 89 84 24 18 01 00 	mov    QWORD PTR [rsp+0x118],rax
    3cfb:	00 
    3cfc:	c7 84 24 58 01 00 00 	mov    DWORD PTR [rsp+0x158],0x10
    3d03:	10 00 00 00 
    3d07:	4c 89 b4 24 60 01 00 	mov    QWORD PTR [rsp+0x160],r14
    3d0e:	00 
    3d0f:	48 c7 84 24 68 01 00 	mov    QWORD PTR [rsp+0x168],0x0
    3d16:	00 00 00 00 00 
    3d1b:	c6 84 24 70 01 00 00 	mov    BYTE PTR [rsp+0x170],0x0
    3d22:	00 
    3d23:	e8 98 e3 ff ff       	call   20c0 <_ZNSt9basic_iosIcSt11char_traitsIcEE4initEPSt15basic_streambufIcS1_E@plt>
    3d28:	48 8b 8c 24 10 01 00 	mov    rcx,QWORD PTR [rsp+0x110]
    3d2f:	00 
    3d30:	48 89 df             	mov    rdi,rbx
    3d33:	f2 0f 10 84 24 b0 00 	movsd  xmm0,QWORD PTR [rsp+0xb0]
    3d3a:	00 00 
    3d3c:	48 8b 51 e8          	mov    rdx,QWORD PTR [rcx-0x18]
    3d40:	48 01 da             	add    rdx,rbx
    3d43:	8b 42 18             	mov    eax,DWORD PTR [rdx+0x18]
    3d46:	48 c7 42 08 0c 00 00 	mov    QWORD PTR [rdx+0x8],0xc
    3d4d:	00 
    3d4e:	25 fb fe ff ff       	and    eax,0xfffffefb
    3d53:	83 c8 04             	or     eax,0x4
    3d56:	89 42 18             	mov    DWORD PTR [rdx+0x18],eax
    3d59:	48 8b 41 e8          	mov    rax,QWORD PTR [rcx-0x18]
    3d5d:	48 c7 84 04 20 01 00 	mov    QWORD PTR [rsp+rax*1+0x120],0x20
    3d64:	00 20 00 00 00 
    3d69:	e8 82 e3 ff ff       	call   20f0 <_ZNSo9_M_insertIdEERSoT_@plt>
    3d6e:	ba 04 00 00 00       	mov    edx,0x4
    3d73:	48 8d 35 d7 42 00 00 	lea    rsi,[rip+0x42d7]        # 8051 <_IO_stdin_used+0x51>
    3d7a:	48 89 df             	mov    rdi,rbx
    3d7d:	e8 1e e3 ff ff       	call   20a0 <_ZSt16__ostream_insertIcSt11char_traitsIcEERSt13basic_ostreamIT_T0_ES6_PKS3_l@plt>
    3d82:	48 8b 84 24 10 01 00 	mov    rax,QWORD PTR [rsp+0x110]
    3d89:	00 
    3d8a:	48 89 df             	mov    rdi,rbx
    3d8d:	f2 0f 10 84 24 b8 00 	movsd  xmm0,QWORD PTR [rsp+0xb8]
    3d94:	00 00 
    3d96:	48 8b 40 e8          	mov    rax,QWORD PTR [rax-0x18]
    3d9a:	48 c7 84 04 20 01 00 	mov    QWORD PTR [rsp+rax*1+0x120],0x20
    3da1:	00 20 00 00 00 
    3da6:	e8 45 e3 ff ff       	call   20f0 <_ZNSo9_M_insertIdEERSoT_@plt>
    3dab:	48 8b 04 24          	mov    rax,QWORD PTR [rsp]
    3daf:	4c 8b 84 24 40 01 00 	mov    r8,QWORD PTR [rsp+0x140]
    3db6:	00 
    3db7:	48 c7 44 24 78 00 00 	mov    QWORD PTR [rsp+0x78],0x0
    3dbe:	00 00 
    3dc0:	c6 84 24 80 00 00 00 	mov    BYTE PTR [rsp+0x80],0x0
    3dc7:	00 
    3dc8:	48 89 44 24 70       	mov    QWORD PTR [rsp+0x70],rax
    3dcd:	4d 85 c0             	test   r8,r8
    3dd0:	0f 84 0a 10 00 00    	je     4de0 <_Z16AvxPackedMathF64v+0x1d60>
    3dd6:	48 8b 84 24 30 01 00 	mov    rax,QWORD PTR [rsp+0x130]
    3ddd:	00 
    3dde:	4c 89 c2             	mov    rdx,r8
    3de1:	48 8b 7c 24 30       	mov    rdi,QWORD PTR [rsp+0x30]
    3de6:	48 8b 8c 24 38 01 00 	mov    rcx,QWORD PTR [rsp+0x138]
    3ded:	00 
    3dee:	4c 39 c0             	cmp    rax,r8
    3df1:	4c 0f 43 c0          	cmovae r8,rax
    3df5:	48 85 c0             	test   rax,rax
    3df8:	4c 0f 44 c2          	cmove  r8,rdx
    3dfc:	31 d2                	xor    edx,edx
    3dfe:	31 f6                	xor    esi,esi
    3e00:	49 29 c8             	sub    r8,rcx
    3e03:	e8 d8 e2 ff ff       	call   20e0 <_ZNSt7__cxx1112basic_stringIcSt11char_traitsIcESaIcEE10_M_replaceEmmPKcm@plt>
    3e08:	66 0f 6f 64 24 20    	movdqa xmm4,XMMWORD PTR [rsp+0x20]
    3e0e:	48 8b bc 24 60 01 00 	mov    rdi,QWORD PTR [rsp+0x160]
    3e15:	00 
    3e16:	4c 89 bc 24 80 01 00 	mov    QWORD PTR [rsp+0x180],r15
    3e1d:	00 
    3e1e:	0f 29 a4 24 10 01 00 	movaps XMMWORD PTR [rsp+0x110],xmm4
    3e25:	00 
    3e26:	4c 39 f7             	cmp    rdi,r14
    3e29:	74 11                	je     3e3c <_Z16AvxPackedMathF64v+0xdbc>
    3e2b:	48 8b 84 24 70 01 00 	mov    rax,QWORD PTR [rsp+0x170]
    3e32:	00 
    3e33:	48 8d 70 01          	lea    rsi,[rax+0x1]
    3e37:	e8 44 e2 ff ff       	call   2080 <_ZdlPvm@plt>
    3e3c:	48 8b 7c 24 08       	mov    rdi,QWORD PTR [rsp+0x8]
    3e41:	48 8d 05 80 5d 00 00 	lea    rax,[rip+0x5d80]        # 9bc8 <_ZTVSt15basic_streambufIcSt11char_traitsIcEE@GLIBCXX_3.4+0x10>
    3e48:	48 89 84 24 18 01 00 	mov    QWORD PTR [rsp+0x118],rax
    3e4f:	00 
    3e50:	e8 7b e2 ff ff       	call   20d0 <_ZNSt6localeD1Ev@plt>
    3e55:	48 8b 45 e8          	mov    rax,QWORD PTR [rbp-0x18]
    3e59:	4c 89 e7             	mov    rdi,r12
    3e5c:	48 8b 0d 35 5e 00 00 	mov    rcx,QWORD PTR [rip+0x5e35]        # 9c98 <_ZTTNSt7__cxx1119basic_ostringstreamIcSt11char_traitsIcESaIcEEE@GLIBCXX_3.4.21+0x10>
    3e63:	48 89 ac 24 10 01 00 	mov    QWORD PTR [rsp+0x110],rbp
    3e6a:	00 
    3e6b:	48 89 8c 04 10 01 00 	mov    QWORD PTR [rsp+rax*1+0x110],rcx
    3e72:	00 
    3e73:	4c 89 ac 24 80 01 00 	mov    QWORD PTR [rsp+0x180],r13
    3e7a:	00 
    3e7b:	e8 e0 e1 ff ff       	call   2060 <_ZNSt8ios_baseD2Ev@plt>
    3e80:	48 8b 54 24 78       	mov    rdx,QWORD PTR [rsp+0x78]
    3e85:	48 8b 74 24 70       	mov    rsi,QWORD PTR [rsp+0x70]
    3e8a:	48 8d 3d af 61 00 00 	lea    rdi,[rip+0x61af]        # a040 <_ZSt4cout@GLIBCXX_3.4>
    3e91:	e8 0a e2 ff ff       	call   20a0 <_ZSt16__ostream_insertIcSt11char_traitsIcEERSt13basic_ostreamIT_T0_ES6_PKS3_l@plt>
    3e96:	c6 44 24 4f 0a       	mov    BYTE PTR [rsp+0x4f],0xa
    3e9b:	48 89 c7             	mov    rdi,rax
    3e9e:	48 8b 00             	mov    rax,QWORD PTR [rax]
    3ea1:	48 8b 40 e8          	mov    rax,QWORD PTR [rax-0x18]
    3ea5:	48 83 7c 07 10 00    	cmp    QWORD PTR [rdi+rax*1+0x10],0x0
    3eab:	0f 84 ff 0d 00 00    	je     4cb0 <_Z16AvxPackedMathF64v+0x1c30>
    3eb1:	48 8d 74 24 4f       	lea    rsi,[rsp+0x4f]
    3eb6:	ba 01 00 00 00       	mov    edx,0x1
    3ebb:	e8 e0 e1 ff ff       	call   20a0 <_ZSt16__ostream_insertIcSt11char_traitsIcEERSt13basic_ostreamIT_T0_ES6_PKS3_l@plt>
    3ec0:	48 8b 7c 24 70       	mov    rdi,QWORD PTR [rsp+0x70]
    3ec5:	48 8b 04 24          	mov    rax,QWORD PTR [rsp]
    3ec9:	48 39 c7             	cmp    rdi,rax
    3ecc:	74 11                	je     3edf <_Z16AvxPackedMathF64v+0xe5f>
    3ece:	48 8b 84 24 80 00 00 	mov    rax,QWORD PTR [rsp+0x80]
    3ed5:	00 
    3ed6:	48 8d 70 01          	lea    rsi,[rax+0x1]
    3eda:	e8 a1 e1 ff ff       	call   2080 <_ZdlPvm@plt>
    3edf:	48 8d 35 98 41 00 00 	lea    rsi,[rip+0x4198]        # 807e <_IO_stdin_used+0x7e>
    3ee6:	ba 09 00 00 00       	mov    edx,0x9
    3eeb:	48 8d 3d 4e 61 00 00 	lea    rdi,[rip+0x614e]        # a040 <_ZSt4cout@GLIBCXX_3.4>
    3ef2:	e8 a9 e1 ff ff       	call   20a0 <_ZSt16__ostream_insertIcSt11char_traitsIcEERSt13basic_ostreamIT_T0_ES6_PKS3_l@plt>
    3ef7:	4c 89 e7             	mov    rdi,r12
    3efa:	e8 51 e1 ff ff       	call   2050 <_ZNSt8ios_baseC2Ev@plt>
    3eff:	31 ff                	xor    edi,edi
    3f01:	66 0f ef c0          	pxor   xmm0,xmm0
    3f05:	31 f6                	xor    esi,esi
    3f07:	66 89 bc 24 60 02 00 	mov    WORD PTR [rsp+0x260],di
    3f0e:	00 
    3f0f:	48 8b 05 82 5d 00 00 	mov    rax,QWORD PTR [rip+0x5d82]        # 9c98 <_ZTTNSt7__cxx1119basic_ostringstreamIcSt11char_traitsIcESaIcEEE@GLIBCXX_3.4.21+0x10>
    3f16:	0f 11 84 24 68 02 00 	movups XMMWORD PTR [rsp+0x268],xmm0
    3f1d:	00 
    3f1e:	0f 11 84 24 78 02 00 	movups XMMWORD PTR [rsp+0x278],xmm0
    3f25:	00 
    3f26:	48 8b 7d e8          	mov    rdi,QWORD PTR [rbp-0x18]
    3f2a:	4c 89 ac 24 80 01 00 	mov    QWORD PTR [rsp+0x180],r13
    3f31:	00 
    3f32:	48 01 df             	add    rdi,rbx
    3f35:	48 89 ac 24 10 01 00 	mov    QWORD PTR [rsp+0x110],rbp
    3f3c:	00 
    3f3d:	48 c7 84 24 58 02 00 	mov    QWORD PTR [rsp+0x258],0x0
    3f44:	00 00 00 00 00 
    3f49:	48 89 07             	mov    QWORD PTR [rdi],rax
    3f4c:	e8 6f e1 ff ff       	call   20c0 <_ZNSt9basic_iosIcSt11char_traitsIcEE4initEPSt15basic_streambufIcS1_E@plt>
    3f51:	66 0f 6f 6c 24 10    	movdqa xmm5,XMMWORD PTR [rsp+0x10]
    3f57:	48 8b 7c 24 08       	mov    rdi,QWORD PTR [rsp+0x8]
    3f5c:	66 0f ef c0          	pxor   xmm0,xmm0
    3f60:	4c 89 bc 24 80 01 00 	mov    QWORD PTR [rsp+0x180],r15
    3f67:	00 
    3f68:	0f 29 84 24 20 01 00 	movaps XMMWORD PTR [rsp+0x120],xmm0
    3f6f:	00 
    3f70:	0f 29 ac 24 10 01 00 	movaps XMMWORD PTR [rsp+0x110],xmm5
    3f77:	00 
    3f78:	0f 29 84 24 30 01 00 	movaps XMMWORD PTR [rsp+0x130],xmm0
    3f7f:	00 
    3f80:	0f 29 84 24 40 01 00 	movaps XMMWORD PTR [rsp+0x140],xmm0
    3f87:	00 
    3f88:	e8 83 e1 ff ff       	call   2110 <_ZNSt6localeC1Ev@plt>
    3f8d:	48 8b 74 24 38       	mov    rsi,QWORD PTR [rsp+0x38]
    3f92:	4c 89 e7             	mov    rdi,r12
    3f95:	48 8d 05 1c 5d 00 00 	lea    rax,[rip+0x5d1c]        # 9cb8 <_ZTVNSt7__cxx1115basic_stringbufIcSt11char_traitsIcESaIcEEE@GLIBCXX_3.4.21+0x10>
    3f9c:	48 89 84 24 18 01 00 	mov    QWORD PTR [rsp+0x118],rax
    3fa3:	00 
    3fa4:	c7 84 24 58 01 00 00 	mov    DWORD PTR [rsp+0x158],0x10
    3fab:	10 00 00 00 
    3faf:	4c 89 b4 24 60 01 00 	mov    QWORD PTR [rsp+0x160],r14
    3fb6:	00 
    3fb7:	48 c7 84 24 68 01 00 	mov    QWORD PTR [rsp+0x168],0x0
    3fbe:	00 00 00 00 00 
    3fc3:	c6 84 24 70 01 00 00 	mov    BYTE PTR [rsp+0x170],0x0
    3fca:	00 
    3fcb:	e8 f0 e0 ff ff       	call   20c0 <_ZNSt9basic_iosIcSt11char_traitsIcEE4initEPSt15basic_streambufIcS1_E@plt>
    3fd0:	48 8b 8c 24 10 01 00 	mov    rcx,QWORD PTR [rsp+0x110]
    3fd7:	00 
    3fd8:	48 89 df             	mov    rdi,rbx
    3fdb:	f2 0f 10 84 24 c0 00 	movsd  xmm0,QWORD PTR [rsp+0xc0]
    3fe2:	00 00 
    3fe4:	48 8b 51 e8          	mov    rdx,QWORD PTR [rcx-0x18]
    3fe8:	48 01 da             	add    rdx,rbx
    3feb:	8b 42 18             	mov    eax,DWORD PTR [rdx+0x18]
    3fee:	48 c7 42 08 0c 00 00 	mov    QWORD PTR [rdx+0x8],0xc
    3ff5:	00 
    3ff6:	25 fb fe ff ff       	and    eax,0xfffffefb
    3ffb:	83 c8 04             	or     eax,0x4
    3ffe:	89 42 18             	mov    DWORD PTR [rdx+0x18],eax
    4001:	48 8b 41 e8          	mov    rax,QWORD PTR [rcx-0x18]
    4005:	48 c7 84 04 20 01 00 	mov    QWORD PTR [rsp+rax*1+0x120],0x20
    400c:	00 20 00 00 00 
    4011:	e8 da e0 ff ff       	call   20f0 <_ZNSo9_M_insertIdEERSoT_@plt>
    4016:	ba 04 00 00 00       	mov    edx,0x4
    401b:	48 8d 35 2f 40 00 00 	lea    rsi,[rip+0x402f]        # 8051 <_IO_stdin_used+0x51>
    4022:	48 89 df             	mov    rdi,rbx
    4025:	e8 76 e0 ff ff       	call   20a0 <_ZSt16__ostream_insertIcSt11char_traitsIcEERSt13basic_ostreamIT_T0_ES6_PKS3_l@plt>
    402a:	48 8b 84 24 10 01 00 	mov    rax,QWORD PTR [rsp+0x110]
    4031:	00 
    4032:	48 89 df             	mov    rdi,rbx
    4035:	f2 0f 10 84 24 c8 00 	movsd  xmm0,QWORD PTR [rsp+0xc8]
    403c:	00 00 
    403e:	48 8b 40 e8          	mov    rax,QWORD PTR [rax-0x18]
    4042:	48 c7 84 04 20 01 00 	mov    QWORD PTR [rsp+rax*1+0x120],0x20
    4049:	00 20 00 00 00 
    404e:	e8 9d e0 ff ff       	call   20f0 <_ZNSo9_M_insertIdEERSoT_@plt>
    4053:	48 8b 04 24          	mov    rax,QWORD PTR [rsp]
    4057:	4c 8b 84 24 40 01 00 	mov    r8,QWORD PTR [rsp+0x140]
    405e:	00 
    405f:	48 c7 44 24 78 00 00 	mov    QWORD PTR [rsp+0x78],0x0
    4066:	00 00 
    4068:	c6 84 24 80 00 00 00 	mov    BYTE PTR [rsp+0x80],0x0
    406f:	00 
    4070:	48 89 44 24 70       	mov    QWORD PTR [rsp+0x70],rax
    4075:	4d 85 c0             	test   r8,r8
    4078:	0f 84 02 0d 00 00    	je     4d80 <_Z16AvxPackedMathF64v+0x1d00>
    407e:	48 8b 84 24 30 01 00 	mov    rax,QWORD PTR [rsp+0x130]
    4085:	00 
    4086:	4c 89 c2             	mov    rdx,r8
    4089:	48 8b 7c 24 30       	mov    rdi,QWORD PTR [rsp+0x30]
    408e:	48 8b 8c 24 38 01 00 	mov    rcx,QWORD PTR [rsp+0x138]
    4095:	00 
    4096:	4c 39 c0             	cmp    rax,r8
    4099:	4c 0f 43 c0          	cmovae r8,rax
    409d:	48 85 c0             	test   rax,rax
    40a0:	4c 0f 44 c2          	cmove  r8,rdx
    40a4:	31 d2                	xor    edx,edx
    40a6:	31 f6                	xor    esi,esi
    40a8:	49 29 c8             	sub    r8,rcx
    40ab:	e8 30 e0 ff ff       	call   20e0 <_ZNSt7__cxx1112basic_stringIcSt11char_traitsIcESaIcEE10_M_replaceEmmPKcm@plt>
    40b0:	66 0f 6f 74 24 20    	movdqa xmm6,XMMWORD PTR [rsp+0x20]
    40b6:	48 8b bc 24 60 01 00 	mov    rdi,QWORD PTR [rsp+0x160]
    40bd:	00 
    40be:	4c 89 bc 24 80 01 00 	mov    QWORD PTR [rsp+0x180],r15
    40c5:	00 
    40c6:	0f 29 b4 24 10 01 00 	movaps XMMWORD PTR [rsp+0x110],xmm6
    40cd:	00 
    40ce:	4c 39 f7             	cmp    rdi,r14
    40d1:	74 11                	je     40e4 <_Z16AvxPackedMathF64v+0x1064>
    40d3:	48 8b 84 24 70 01 00 	mov    rax,QWORD PTR [rsp+0x170]
    40da:	00 
    40db:	48 8d 70 01          	lea    rsi,[rax+0x1]
    40df:	e8 9c df ff ff       	call   2080 <_ZdlPvm@plt>
    40e4:	48 8b 7c 24 08       	mov    rdi,QWORD PTR [rsp+0x8]
    40e9:	48 8d 05 d8 5a 00 00 	lea    rax,[rip+0x5ad8]        # 9bc8 <_ZTVSt15basic_streambufIcSt11char_traitsIcEE@GLIBCXX_3.4+0x10>
    40f0:	48 89 84 24 18 01 00 	mov    QWORD PTR [rsp+0x118],rax
    40f7:	00 
    40f8:	e8 d3 df ff ff       	call   20d0 <_ZNSt6localeD1Ev@plt>
    40fd:	48 8b 45 e8          	mov    rax,QWORD PTR [rbp-0x18]
    4101:	4c 89 e7             	mov    rdi,r12
    4104:	48 8b 0d 8d 5b 00 00 	mov    rcx,QWORD PTR [rip+0x5b8d]        # 9c98 <_ZTTNSt7__cxx1119basic_ostringstreamIcSt11char_traitsIcESaIcEEE@GLIBCXX_3.4.21+0x10>
    410b:	48 89 ac 24 10 01 00 	mov    QWORD PTR [rsp+0x110],rbp
    4112:	00 
    4113:	48 89 8c 04 10 01 00 	mov    QWORD PTR [rsp+rax*1+0x110],rcx
    411a:	00 
    411b:	4c 89 ac 24 80 01 00 	mov    QWORD PTR [rsp+0x180],r13
    4122:	00 
    4123:	e8 38 df ff ff       	call   2060 <_ZNSt8ios_baseD2Ev@plt>
    4128:	48 8b 54 24 78       	mov    rdx,QWORD PTR [rsp+0x78]
    412d:	48 8b 74 24 70       	mov    rsi,QWORD PTR [rsp+0x70]
    4132:	48 8d 3d 07 5f 00 00 	lea    rdi,[rip+0x5f07]        # a040 <_ZSt4cout@GLIBCXX_3.4>
    4139:	e8 62 df ff ff       	call   20a0 <_ZSt16__ostream_insertIcSt11char_traitsIcEERSt13basic_ostreamIT_T0_ES6_PKS3_l@plt>
    413e:	c6 44 24 4f 0a       	mov    BYTE PTR [rsp+0x4f],0xa
    4143:	48 89 c7             	mov    rdi,rax
    4146:	48 8b 00             	mov    rax,QWORD PTR [rax]
    4149:	48 8b 40 e8          	mov    rax,QWORD PTR [rax-0x18]
    414d:	48 83 7c 07 10 00    	cmp    QWORD PTR [rdi+rax*1+0x10],0x0
    4153:	0f 84 a7 0b 00 00    	je     4d00 <_Z16AvxPackedMathF64v+0x1c80>
    4159:	48 8d 74 24 4f       	lea    rsi,[rsp+0x4f]
    415e:	ba 01 00 00 00       	mov    edx,0x1
    4163:	e8 38 df ff ff       	call   20a0 <_ZSt16__ostream_insertIcSt11char_traitsIcEERSt13basic_ostreamIT_T0_ES6_PKS3_l@plt>
    4168:	48 8b 7c 24 70       	mov    rdi,QWORD PTR [rsp+0x70]
    416d:	48 8b 04 24          	mov    rax,QWORD PTR [rsp]
    4171:	48 39 c7             	cmp    rdi,rax
    4174:	74 11                	je     4187 <_Z16AvxPackedMathF64v+0x1107>
    4176:	48 8b 84 24 80 00 00 	mov    rax,QWORD PTR [rsp+0x80]
    417d:	00 
    417e:	48 8d 70 01          	lea    rsi,[rax+0x1]
    4182:	e8 f9 de ff ff       	call   2080 <_ZdlPvm@plt>
    4187:	48 8d 35 fa 3e 00 00 	lea    rsi,[rip+0x3efa]        # 8088 <_IO_stdin_used+0x88>
    418e:	ba 09 00 00 00       	mov    edx,0x9
    4193:	48 8d 3d a6 5e 00 00 	lea    rdi,[rip+0x5ea6]        # a040 <_ZSt4cout@GLIBCXX_3.4>
    419a:	e8 01 df ff ff       	call   20a0 <_ZSt16__ostream_insertIcSt11char_traitsIcEERSt13basic_ostreamIT_T0_ES6_PKS3_l@plt>
    419f:	4c 89 e7             	mov    rdi,r12
    41a2:	e8 a9 de ff ff       	call   2050 <_ZNSt8ios_baseC2Ev@plt>
    41a7:	31 f6                	xor    esi,esi
    41a9:	66 0f ef c0          	pxor   xmm0,xmm0
    41ad:	48 8b 05 e4 5a 00 00 	mov    rax,QWORD PTR [rip+0x5ae4]        # 9c98 <_ZTTNSt7__cxx1119basic_ostringstreamIcSt11char_traitsIcESaIcEEE@GLIBCXX_3.4.21+0x10>
    41b4:	66 89 b4 24 60 02 00 	mov    WORD PTR [rsp+0x260],si
    41bb:	00 
    41bc:	31 f6                	xor    esi,esi
    41be:	0f 11 84 24 68 02 00 	movups XMMWORD PTR [rsp+0x268],xmm0
    41c5:	00 
    41c6:	0f 11 84 24 78 02 00 	movups XMMWORD PTR [rsp+0x278],xmm0
    41cd:	00 
    41ce:	48 8b 7d e8          	mov    rdi,QWORD PTR [rbp-0x18]
    41d2:	4c 89 ac 24 80 01 00 	mov    QWORD PTR [rsp+0x180],r13
    41d9:	00 
    41da:	48 01 df             	add    rdi,rbx
    41dd:	48 89 ac 24 10 01 00 	mov    QWORD PTR [rsp+0x110],rbp
    41e4:	00 
    41e5:	48 c7 84 24 58 02 00 	mov    QWORD PTR [rsp+0x258],0x0
    41ec:	00 00 00 00 00 
    41f1:	48 89 07             	mov    QWORD PTR [rdi],rax
    41f4:	e8 c7 de ff ff       	call   20c0 <_ZNSt9basic_iosIcSt11char_traitsIcEE4initEPSt15basic_streambufIcS1_E@plt>
    41f9:	66 0f 6f 7c 24 10    	movdqa xmm7,XMMWORD PTR [rsp+0x10]
    41ff:	48 8b 7c 24 08       	mov    rdi,QWORD PTR [rsp+0x8]
    4204:	66 0f ef c0          	pxor   xmm0,xmm0
    4208:	4c 89 bc 24 80 01 00 	mov    QWORD PTR [rsp+0x180],r15
    420f:	00 
    4210:	0f 29 84 24 20 01 00 	movaps XMMWORD PTR [rsp+0x120],xmm0
    4217:	00 
    4218:	0f 29 bc 24 10 01 00 	movaps XMMWORD PTR [rsp+0x110],xmm7
    421f:	00 
    4220:	0f 29 84 24 30 01 00 	movaps XMMWORD PTR [rsp+0x130],xmm0
    4227:	00 
    4228:	0f 29 84 24 40 01 00 	movaps XMMWORD PTR [rsp+0x140],xmm0
    422f:	00 
    4230:	e8 db de ff ff       	call   2110 <_ZNSt6localeC1Ev@plt>
    4235:	48 8b 74 24 38       	mov    rsi,QWORD PTR [rsp+0x38]
    423a:	4c 89 e7             	mov    rdi,r12
    423d:	48 8d 05 74 5a 00 00 	lea    rax,[rip+0x5a74]        # 9cb8 <_ZTVNSt7__cxx1115basic_stringbufIcSt11char_traitsIcESaIcEEE@GLIBCXX_3.4.21+0x10>
    4244:	48 89 84 24 18 01 00 	mov    QWORD PTR [rsp+0x118],rax
    424b:	00 
    424c:	c7 84 24 58 01 00 00 	mov    DWORD PTR [rsp+0x158],0x10
    4253:	10 00 00 00 
    4257:	4c 89 b4 24 60 01 00 	mov    QWORD PTR [rsp+0x160],r14
    425e:	00 
    425f:	48 c7 84 24 68 01 00 	mov    QWORD PTR [rsp+0x168],0x0
    4266:	00 00 00 00 00 
    426b:	c6 84 24 70 01 00 00 	mov    BYTE PTR [rsp+0x170],0x0
    4272:	00 
    4273:	e8 48 de ff ff       	call   20c0 <_ZNSt9basic_iosIcSt11char_traitsIcEE4initEPSt15basic_streambufIcS1_E@plt>
    4278:	48 8b 8c 24 10 01 00 	mov    rcx,QWORD PTR [rsp+0x110]
    427f:	00 
    4280:	48 89 df             	mov    rdi,rbx
    4283:	f2 0f 10 84 24 d0 00 	movsd  xmm0,QWORD PTR [rsp+0xd0]
    428a:	00 00 
    428c:	48 8b 51 e8          	mov    rdx,QWORD PTR [rcx-0x18]
    4290:	48 01 da             	add    rdx,rbx
    4293:	8b 42 18             	mov    eax,DWORD PTR [rdx+0x18]
    4296:	48 c7 42 08 0c 00 00 	mov    QWORD PTR [rdx+0x8],0xc
    429d:	00 
    429e:	25 fb fe ff ff       	and    eax,0xfffffefb
    42a3:	83 c8 04             	or     eax,0x4
    42a6:	89 42 18             	mov    DWORD PTR [rdx+0x18],eax
    42a9:	48 8b 41 e8          	mov    rax,QWORD PTR [rcx-0x18]
    42ad:	48 c7 84 04 20 01 00 	mov    QWORD PTR [rsp+rax*1+0x120],0x20
    42b4:	00 20 00 00 00 
    42b9:	e8 32 de ff ff       	call   20f0 <_ZNSo9_M_insertIdEERSoT_@plt>
    42be:	ba 04 00 00 00       	mov    edx,0x4
    42c3:	48 8d 35 87 3d 00 00 	lea    rsi,[rip+0x3d87]        # 8051 <_IO_stdin_used+0x51>
    42ca:	48 89 df             	mov    rdi,rbx
    42cd:	e8 ce dd ff ff       	call   20a0 <_ZSt16__ostream_insertIcSt11char_traitsIcEERSt13basic_ostreamIT_T0_ES6_PKS3_l@plt>
    42d2:	48 8b 84 24 10 01 00 	mov    rax,QWORD PTR [rsp+0x110]
    42d9:	00 
    42da:	48 89 df             	mov    rdi,rbx
    42dd:	f2 0f 10 84 24 d8 00 	movsd  xmm0,QWORD PTR [rsp+0xd8]
    42e4:	00 00 
    42e6:	48 8b 40 e8          	mov    rax,QWORD PTR [rax-0x18]
    42ea:	48 c7 84 04 20 01 00 	mov    QWORD PTR [rsp+rax*1+0x120],0x20
    42f1:	00 20 00 00 00 
    42f6:	e8 f5 dd ff ff       	call   20f0 <_ZNSo9_M_insertIdEERSoT_@plt>
    42fb:	48 8b 04 24          	mov    rax,QWORD PTR [rsp]
    42ff:	4c 8b 84 24 40 01 00 	mov    r8,QWORD PTR [rsp+0x140]
    4306:	00 
    4307:	48 c7 44 24 78 00 00 	mov    QWORD PTR [rsp+0x78],0x0
    430e:	00 00 
    4310:	c6 84 24 80 00 00 00 	mov    BYTE PTR [rsp+0x80],0x0
    4317:	00 
    4318:	48 89 44 24 70       	mov    QWORD PTR [rsp+0x70],rax
    431d:	4d 85 c0             	test   r8,r8
    4320:	0f 84 3a 0a 00 00    	je     4d60 <_Z16AvxPackedMathF64v+0x1ce0>
    4326:	48 8b 84 24 30 01 00 	mov    rax,QWORD PTR [rsp+0x130]
    432d:	00 
    432e:	4c 89 c2             	mov    rdx,r8
    4331:	48 8b 7c 24 30       	mov    rdi,QWORD PTR [rsp+0x30]
    4336:	48 8b 8c 24 38 01 00 	mov    rcx,QWORD PTR [rsp+0x138]
    433d:	00 
    433e:	4c 39 c0             	cmp    rax,r8
    4341:	4c 0f 43 c0          	cmovae r8,rax
    4345:	48 85 c0             	test   rax,rax
    4348:	4c 0f 44 c2          	cmove  r8,rdx
    434c:	31 d2                	xor    edx,edx
    434e:	31 f6                	xor    esi,esi
    4350:	49 29 c8             	sub    r8,rcx
    4353:	e8 88 dd ff ff       	call   20e0 <_ZNSt7__cxx1112basic_stringIcSt11char_traitsIcESaIcEE10_M_replaceEmmPKcm@plt>
    4358:	66 0f 6f 5c 24 20    	movdqa xmm3,XMMWORD PTR [rsp+0x20]
    435e:	48 8b bc 24 60 01 00 	mov    rdi,QWORD PTR [rsp+0x160]
    4365:	00 
    4366:	4c 89 bc 24 80 01 00 	mov    QWORD PTR [rsp+0x180],r15
    436d:	00 
    436e:	0f 29 9c 24 10 01 00 	movaps XMMWORD PTR [rsp+0x110],xmm3
    4375:	00 
    4376:	4c 39 f7             	cmp    rdi,r14
    4379:	74 11                	je     438c <_Z16AvxPackedMathF64v+0x130c>
    437b:	48 8b 84 24 70 01 00 	mov    rax,QWORD PTR [rsp+0x170]
    4382:	00 
    4383:	48 8d 70 01          	lea    rsi,[rax+0x1]
    4387:	e8 f4 dc ff ff       	call   2080 <_ZdlPvm@plt>
    438c:	48 8b 7c 24 08       	mov    rdi,QWORD PTR [rsp+0x8]
    4391:	48 8d 05 30 58 00 00 	lea    rax,[rip+0x5830]        # 9bc8 <_ZTVSt15basic_streambufIcSt11char_traitsIcEE@GLIBCXX_3.4+0x10>
    4398:	48 89 84 24 18 01 00 	mov    QWORD PTR [rsp+0x118],rax
    439f:	00 
    43a0:	e8 2b dd ff ff       	call   20d0 <_ZNSt6localeD1Ev@plt>
    43a5:	48 8b 45 e8          	mov    rax,QWORD PTR [rbp-0x18]
    43a9:	4c 89 e7             	mov    rdi,r12
    43ac:	48 8b 0d e5 58 00 00 	mov    rcx,QWORD PTR [rip+0x58e5]        # 9c98 <_ZTTNSt7__cxx1119basic_ostringstreamIcSt11char_traitsIcESaIcEEE@GLIBCXX_3.4.21+0x10>
    43b3:	48 89 ac 24 10 01 00 	mov    QWORD PTR [rsp+0x110],rbp
    43ba:	00 
    43bb:	48 89 8c 04 10 01 00 	mov    QWORD PTR [rsp+rax*1+0x110],rcx
    43c2:	00 
    43c3:	4c 89 ac 24 80 01 00 	mov    QWORD PTR [rsp+0x180],r13
    43ca:	00 
    43cb:	e8 90 dc ff ff       	call   2060 <_ZNSt8ios_baseD2Ev@plt>
    43d0:	48 8b 54 24 78       	mov    rdx,QWORD PTR [rsp+0x78]
    43d5:	48 8b 74 24 70       	mov    rsi,QWORD PTR [rsp+0x70]
    43da:	48 8d 3d 5f 5c 00 00 	lea    rdi,[rip+0x5c5f]        # a040 <_ZSt4cout@GLIBCXX_3.4>
    43e1:	e8 ba dc ff ff       	call   20a0 <_ZSt16__ostream_insertIcSt11char_traitsIcEERSt13basic_ostreamIT_T0_ES6_PKS3_l@plt>
    43e6:	c6 44 24 4f 0a       	mov    BYTE PTR [rsp+0x4f],0xa
    43eb:	48 89 c7             	mov    rdi,rax
    43ee:	48 8b 00             	mov    rax,QWORD PTR [rax]
    43f1:	48 8b 40 e8          	mov    rax,QWORD PTR [rax-0x18]
    43f5:	48 83 7c 07 10 00    	cmp    QWORD PTR [rdi+rax*1+0x10],0x0
    43fb:	0f 84 ef 08 00 00    	je     4cf0 <_Z16AvxPackedMathF64v+0x1c70>
    4401:	48 8d 74 24 4f       	lea    rsi,[rsp+0x4f]
    4406:	ba 01 00 00 00       	mov    edx,0x1
    440b:	e8 90 dc ff ff       	call   20a0 <_ZSt16__ostream_insertIcSt11char_traitsIcEERSt13basic_ostreamIT_T0_ES6_PKS3_l@plt>
    4410:	48 8b 7c 24 70       	mov    rdi,QWORD PTR [rsp+0x70]
    4415:	48 8b 04 24          	mov    rax,QWORD PTR [rsp]
    4419:	48 39 c7             	cmp    rdi,rax
    441c:	74 11                	je     442f <_Z16AvxPackedMathF64v+0x13af>
    441e:	48 8b 84 24 80 00 00 	mov    rax,QWORD PTR [rsp+0x80]
    4425:	00 
    4426:	48 8d 70 01          	lea    rsi,[rax+0x1]
    442a:	e8 51 dc ff ff       	call   2080 <_ZdlPvm@plt>
    442f:	48 8d 35 5c 3c 00 00 	lea    rsi,[rip+0x3c5c]        # 8092 <_IO_stdin_used+0x92>
    4436:	ba 09 00 00 00       	mov    edx,0x9
    443b:	48 8d 3d fe 5b 00 00 	lea    rdi,[rip+0x5bfe]        # a040 <_ZSt4cout@GLIBCXX_3.4>
    4442:	e8 59 dc ff ff       	call   20a0 <_ZSt16__ostream_insertIcSt11char_traitsIcEERSt13basic_ostreamIT_T0_ES6_PKS3_l@plt>
    4447:	4c 89 e7             	mov    rdi,r12
    444a:	e8 01 dc ff ff       	call   2050 <_ZNSt8ios_baseC2Ev@plt>
    444f:	66 0f ef c0          	pxor   xmm0,xmm0
    4453:	31 c9                	xor    ecx,ecx
    4455:	31 f6                	xor    esi,esi
    4457:	66 89 8c 24 60 02 00 	mov    WORD PTR [rsp+0x260],cx
    445e:	00 
    445f:	48 8b 05 32 58 00 00 	mov    rax,QWORD PTR [rip+0x5832]        # 9c98 <_ZTTNSt7__cxx1119basic_ostringstreamIcSt11char_traitsIcESaIcEEE@GLIBCXX_3.4.21+0x10>
    4466:	0f 11 84 24 68 02 00 	movups XMMWORD PTR [rsp+0x268],xmm0
    446d:	00 
    446e:	0f 11 84 24 78 02 00 	movups XMMWORD PTR [rsp+0x278],xmm0
    4475:	00 
    4476:	48 8b 7d e8          	mov    rdi,QWORD PTR [rbp-0x18]
    447a:	4c 89 ac 24 80 01 00 	mov    QWORD PTR [rsp+0x180],r13
    4481:	00 
    4482:	48 01 df             	add    rdi,rbx
    4485:	48 89 ac 24 10 01 00 	mov    QWORD PTR [rsp+0x110],rbp
    448c:	00 
    448d:	48 c7 84 24 58 02 00 	mov    QWORD PTR [rsp+0x258],0x0
    4494:	00 00 00 00 00 
    4499:	48 89 07             	mov    QWORD PTR [rdi],rax
    449c:	e8 1f dc ff ff       	call   20c0 <_ZNSt9basic_iosIcSt11char_traitsIcEE4initEPSt15basic_streambufIcS1_E@plt>
    44a1:	66 0f 6f 64 24 10    	movdqa xmm4,XMMWORD PTR [rsp+0x10]
    44a7:	48 8b 7c 24 08       	mov    rdi,QWORD PTR [rsp+0x8]
    44ac:	66 0f ef c0          	pxor   xmm0,xmm0
    44b0:	4c 89 bc 24 80 01 00 	mov    QWORD PTR [rsp+0x180],r15
    44b7:	00 
    44b8:	0f 29 84 24 20 01 00 	movaps XMMWORD PTR [rsp+0x120],xmm0
    44bf:	00 
    44c0:	0f 29 a4 24 10 01 00 	movaps XMMWORD PTR [rsp+0x110],xmm4
    44c7:	00 
    44c8:	0f 29 84 24 30 01 00 	movaps XMMWORD PTR [rsp+0x130],xmm0
    44cf:	00 
    44d0:	0f 29 84 24 40 01 00 	movaps XMMWORD PTR [rsp+0x140],xmm0
    44d7:	00 
    44d8:	e8 33 dc ff ff       	call   2110 <_ZNSt6localeC1Ev@plt>
    44dd:	48 8b 74 24 38       	mov    rsi,QWORD PTR [rsp+0x38]
    44e2:	4c 89 e7             	mov    rdi,r12
    44e5:	48 8d 05 cc 57 00 00 	lea    rax,[rip+0x57cc]        # 9cb8 <_ZTVNSt7__cxx1115basic_stringbufIcSt11char_traitsIcESaIcEEE@GLIBCXX_3.4.21+0x10>
    44ec:	48 89 84 24 18 01 00 	mov    QWORD PTR [rsp+0x118],rax
    44f3:	00 
    44f4:	c7 84 24 58 01 00 00 	mov    DWORD PTR [rsp+0x158],0x10
    44fb:	10 00 00 00 
    44ff:	4c 89 b4 24 60 01 00 	mov    QWORD PTR [rsp+0x160],r14
    4506:	00 
    4507:	48 c7 84 24 68 01 00 	mov    QWORD PTR [rsp+0x168],0x0
    450e:	00 00 00 00 00 
    4513:	c6 84 24 70 01 00 00 	mov    BYTE PTR [rsp+0x170],0x0
    451a:	00 
    451b:	e8 a0 db ff ff       	call   20c0 <_ZNSt9basic_iosIcSt11char_traitsIcEE4initEPSt15basic_streambufIcS1_E@plt>
    4520:	48 8b 8c 24 10 01 00 	mov    rcx,QWORD PTR [rsp+0x110]
    4527:	00 
    4528:	48 89 df             	mov    rdi,rbx
    452b:	f2 0f 10 84 24 e0 00 	movsd  xmm0,QWORD PTR [rsp+0xe0]
    4532:	00 00 
    4534:	48 8b 51 e8          	mov    rdx,QWORD PTR [rcx-0x18]
    4538:	48 01 da             	add    rdx,rbx
    453b:	8b 42 18             	mov    eax,DWORD PTR [rdx+0x18]
    453e:	48 c7 42 08 0c 00 00 	mov    QWORD PTR [rdx+0x8],0xc
    4545:	00 
    4546:	25 fb fe ff ff       	and    eax,0xfffffefb
    454b:	83 c8 04             	or     eax,0x4
    454e:	89 42 18             	mov    DWORD PTR [rdx+0x18],eax
    4551:	48 8b 41 e8          	mov    rax,QWORD PTR [rcx-0x18]
    4555:	48 c7 84 04 20 01 00 	mov    QWORD PTR [rsp+rax*1+0x120],0x20
    455c:	00 20 00 00 00 
    4561:	e8 8a db ff ff       	call   20f0 <_ZNSo9_M_insertIdEERSoT_@plt>
    4566:	ba 04 00 00 00       	mov    edx,0x4
    456b:	48 8d 35 df 3a 00 00 	lea    rsi,[rip+0x3adf]        # 8051 <_IO_stdin_used+0x51>
    4572:	48 89 df             	mov    rdi,rbx
    4575:	e8 26 db ff ff       	call   20a0 <_ZSt16__ostream_insertIcSt11char_traitsIcEERSt13basic_ostreamIT_T0_ES6_PKS3_l@plt>
    457a:	48 8b 84 24 10 01 00 	mov    rax,QWORD PTR [rsp+0x110]
    4581:	00 
    4582:	48 89 df             	mov    rdi,rbx
    4585:	f2 0f 10 84 24 e8 00 	movsd  xmm0,QWORD PTR [rsp+0xe8]
    458c:	00 00 
    458e:	48 8b 40 e8          	mov    rax,QWORD PTR [rax-0x18]
    4592:	48 c7 84 04 20 01 00 	mov    QWORD PTR [rsp+rax*1+0x120],0x20
    4599:	00 20 00 00 00 
    459e:	e8 4d db ff ff       	call   20f0 <_ZNSo9_M_insertIdEERSoT_@plt>
    45a3:	48 8b 04 24          	mov    rax,QWORD PTR [rsp]
    45a7:	4c 8b 84 24 40 01 00 	mov    r8,QWORD PTR [rsp+0x140]
    45ae:	00 
    45af:	48 c7 44 24 78 00 00 	mov    QWORD PTR [rsp+0x78],0x0
    45b6:	00 00 
    45b8:	c6 84 24 80 00 00 00 	mov    BYTE PTR [rsp+0x80],0x0
    45bf:	00 
    45c0:	48 89 44 24 70       	mov    QWORD PTR [rsp+0x70],rax
    45c5:	4d 85 c0             	test   r8,r8
    45c8:	0f 84 f2 07 00 00    	je     4dc0 <_Z16AvxPackedMathF64v+0x1d40>
    45ce:	48 8b 84 24 30 01 00 	mov    rax,QWORD PTR [rsp+0x130]
    45d5:	00 
    45d6:	4c 89 c2             	mov    rdx,r8
    45d9:	48 8b 7c 24 30       	mov    rdi,QWORD PTR [rsp+0x30]
    45de:	48 8b 8c 24 38 01 00 	mov    rcx,QWORD PTR [rsp+0x138]
    45e5:	00 
    45e6:	4c 39 c0             	cmp    rax,r8
    45e9:	4c 0f 43 c0          	cmovae r8,rax
    45ed:	48 85 c0             	test   rax,rax
    45f0:	4c 0f 44 c2          	cmove  r8,rdx
    45f4:	31 d2                	xor    edx,edx
    45f6:	31 f6                	xor    esi,esi
    45f8:	49 29 c8             	sub    r8,rcx
    45fb:	e8 e0 da ff ff       	call   20e0 <_ZNSt7__cxx1112basic_stringIcSt11char_traitsIcESaIcEE10_M_replaceEmmPKcm@plt>
    4600:	66 0f 6f 6c 24 20    	movdqa xmm5,XMMWORD PTR [rsp+0x20]
    4606:	48 8b bc 24 60 01 00 	mov    rdi,QWORD PTR [rsp+0x160]
    460d:	00 
    460e:	4c 89 bc 24 80 01 00 	mov    QWORD PTR [rsp+0x180],r15
    4615:	00 
    4616:	0f 29 ac 24 10 01 00 	movaps XMMWORD PTR [rsp+0x110],xmm5
    461d:	00 
    461e:	4c 39 f7             	cmp    rdi,r14
    4621:	74 11                	je     4634 <_Z16AvxPackedMathF64v+0x15b4>
    4623:	48 8b 84 24 70 01 00 	mov    rax,QWORD PTR [rsp+0x170]
    462a:	00 
    462b:	48 8d 70 01          	lea    rsi,[rax+0x1]
    462f:	e8 4c da ff ff       	call   2080 <_ZdlPvm@plt>
    4634:	48 8b 7c 24 08       	mov    rdi,QWORD PTR [rsp+0x8]
    4639:	48 8d 05 88 55 00 00 	lea    rax,[rip+0x5588]        # 9bc8 <_ZTVSt15basic_streambufIcSt11char_traitsIcEE@GLIBCXX_3.4+0x10>
    4640:	48 89 84 24 18 01 00 	mov    QWORD PTR [rsp+0x118],rax
    4647:	00 
    4648:	e8 83 da ff ff       	call   20d0 <_ZNSt6localeD1Ev@plt>
    464d:	48 8b 45 e8          	mov    rax,QWORD PTR [rbp-0x18]
    4651:	4c 89 e7             	mov    rdi,r12
    4654:	48 8b 0d 3d 56 00 00 	mov    rcx,QWORD PTR [rip+0x563d]        # 9c98 <_ZTTNSt7__cxx1119basic_ostringstreamIcSt11char_traitsIcESaIcEEE@GLIBCXX_3.4.21+0x10>
    465b:	48 89 ac 24 10 01 00 	mov    QWORD PTR [rsp+0x110],rbp
    4662:	00 
    4663:	48 89 8c 04 10 01 00 	mov    QWORD PTR [rsp+rax*1+0x110],rcx
    466a:	00 
    466b:	4c 89 ac 24 80 01 00 	mov    QWORD PTR [rsp+0x180],r13
    4672:	00 
    4673:	e8 e8 d9 ff ff       	call   2060 <_ZNSt8ios_baseD2Ev@plt>
    4678:	48 8b 54 24 78       	mov    rdx,QWORD PTR [rsp+0x78]
    467d:	48 8b 74 24 70       	mov    rsi,QWORD PTR [rsp+0x70]
    4682:	48 8d 3d b7 59 00 00 	lea    rdi,[rip+0x59b7]        # a040 <_ZSt4cout@GLIBCXX_3.4>
    4689:	e8 12 da ff ff       	call   20a0 <_ZSt16__ostream_insertIcSt11char_traitsIcEERSt13basic_ostreamIT_T0_ES6_PKS3_l@plt>
    468e:	c6 44 24 4f 0a       	mov    BYTE PTR [rsp+0x4f],0xa
    4693:	48 89 c7             	mov    rdi,rax
    4696:	48 8b 00             	mov    rax,QWORD PTR [rax]
    4699:	48 8b 40 e8          	mov    rax,QWORD PTR [rax-0x18]
    469d:	48 83 7c 07 10 00    	cmp    QWORD PTR [rdi+rax*1+0x10],0x0
    46a3:	0f 84 37 06 00 00    	je     4ce0 <_Z16AvxPackedMathF64v+0x1c60>
    46a9:	48 8d 74 24 4f       	lea    rsi,[rsp+0x4f]
    46ae:	ba 01 00 00 00       	mov    edx,0x1
    46b3:	e8 e8 d9 ff ff       	call   20a0 <_ZSt16__ostream_insertIcSt11char_traitsIcEERSt13basic_ostreamIT_T0_ES6_PKS3_l@plt>
    46b8:	48 8b 7c 24 70       	mov    rdi,QWORD PTR [rsp+0x70]
    46bd:	48 8b 04 24          	mov    rax,QWORD PTR [rsp]
    46c1:	48 39 c7             	cmp    rdi,rax
    46c4:	74 11                	je     46d7 <_Z16AvxPackedMathF64v+0x1657>
    46c6:	48 8b 84 24 80 00 00 	mov    rax,QWORD PTR [rsp+0x80]
    46cd:	00 
    46ce:	48 8d 70 01          	lea    rsi,[rax+0x1]
    46d2:	e8 a9 d9 ff ff       	call   2080 <_ZdlPvm@plt>
    46d7:	ba 09 00 00 00       	mov    edx,0x9
    46dc:	48 8d 35 b9 39 00 00 	lea    rsi,[rip+0x39b9]        # 809c <_IO_stdin_used+0x9c>
    46e3:	48 8d 3d 56 59 00 00 	lea    rdi,[rip+0x5956]        # a040 <_ZSt4cout@GLIBCXX_3.4>
    46ea:	e8 b1 d9 ff ff       	call   20a0 <_ZSt16__ostream_insertIcSt11char_traitsIcEERSt13basic_ostreamIT_T0_ES6_PKS3_l@plt>
    46ef:	4c 89 e7             	mov    rdi,r12
    46f2:	e8 59 d9 ff ff       	call   2050 <_ZNSt8ios_baseC2Ev@plt>
    46f7:	66 0f ef c0          	pxor   xmm0,xmm0
    46fb:	31 d2                	xor    edx,edx
    46fd:	31 f6                	xor    esi,esi
    46ff:	66 89 94 24 60 02 00 	mov    WORD PTR [rsp+0x260],dx
    4706:	00 
    4707:	48 8b 05 8a 55 00 00 	mov    rax,QWORD PTR [rip+0x558a]        # 9c98 <_ZTTNSt7__cxx1119basic_ostringstreamIcSt11char_traitsIcESaIcEEE@GLIBCXX_3.4.21+0x10>
    470e:	0f 11 84 24 68 02 00 	movups XMMWORD PTR [rsp+0x268],xmm0
    4715:	00 
    4716:	0f 11 84 24 78 02 00 	movups XMMWORD PTR [rsp+0x278],xmm0
    471d:	00 
    471e:	48 8b 7d e8          	mov    rdi,QWORD PTR [rbp-0x18]
    4722:	4c 89 ac 24 80 01 00 	mov    QWORD PTR [rsp+0x180],r13
    4729:	00 
    472a:	48 01 df             	add    rdi,rbx
    472d:	48 89 ac 24 10 01 00 	mov    QWORD PTR [rsp+0x110],rbp
    4734:	00 
    4735:	48 c7 84 24 58 02 00 	mov    QWORD PTR [rsp+0x258],0x0
    473c:	00 00 00 00 00 
    4741:	48 89 07             	mov    QWORD PTR [rdi],rax
    4744:	e8 77 d9 ff ff       	call   20c0 <_ZNSt9basic_iosIcSt11char_traitsIcEE4initEPSt15basic_streambufIcS1_E@plt>
    4749:	66 0f 6f 54 24 10    	movdqa xmm2,XMMWORD PTR [rsp+0x10]
    474f:	48 8b 7c 24 08       	mov    rdi,QWORD PTR [rsp+0x8]
    4754:	66 0f ef c0          	pxor   xmm0,xmm0
    4758:	4c 89 bc 24 80 01 00 	mov    QWORD PTR [rsp+0x180],r15
    475f:	00 
    4760:	0f 29 84 24 20 01 00 	movaps XMMWORD PTR [rsp+0x120],xmm0
    4767:	00 
    4768:	0f 29 94 24 10 01 00 	movaps XMMWORD PTR [rsp+0x110],xmm2
    476f:	00 
    4770:	0f 29 84 24 30 01 00 	movaps XMMWORD PTR [rsp+0x130],xmm0
    4777:	00 
    4778:	0f 29 84 24 40 01 00 	movaps XMMWORD PTR [rsp+0x140],xmm0
    477f:	00 
    4780:	e8 8b d9 ff ff       	call   2110 <_ZNSt6localeC1Ev@plt>
    4785:	48 8b 74 24 38       	mov    rsi,QWORD PTR [rsp+0x38]
    478a:	4c 89 e7             	mov    rdi,r12
    478d:	48 8d 05 24 55 00 00 	lea    rax,[rip+0x5524]        # 9cb8 <_ZTVNSt7__cxx1115basic_stringbufIcSt11char_traitsIcESaIcEEE@GLIBCXX_3.4.21+0x10>
    4794:	48 89 84 24 18 01 00 	mov    QWORD PTR [rsp+0x118],rax
    479b:	00 
    479c:	c7 84 24 58 01 00 00 	mov    DWORD PTR [rsp+0x158],0x10
    47a3:	10 00 00 00 
    47a7:	4c 89 b4 24 60 01 00 	mov    QWORD PTR [rsp+0x160],r14
    47ae:	00 
    47af:	48 c7 84 24 68 01 00 	mov    QWORD PTR [rsp+0x168],0x0
    47b6:	00 00 00 00 00 
    47bb:	c6 84 24 70 01 00 00 	mov    BYTE PTR [rsp+0x170],0x0
    47c2:	00 
    47c3:	e8 f8 d8 ff ff       	call   20c0 <_ZNSt9basic_iosIcSt11char_traitsIcEE4initEPSt15basic_streambufIcS1_E@plt>
    47c8:	48 8b 8c 24 10 01 00 	mov    rcx,QWORD PTR [rsp+0x110]
    47cf:	00 
    47d0:	48 89 df             	mov    rdi,rbx
    47d3:	f2 0f 10 84 24 f0 00 	movsd  xmm0,QWORD PTR [rsp+0xf0]
    47da:	00 00 
    47dc:	48 8b 51 e8          	mov    rdx,QWORD PTR [rcx-0x18]
    47e0:	48 01 da             	add    rdx,rbx
    47e3:	8b 42 18             	mov    eax,DWORD PTR [rdx+0x18]
    47e6:	48 c7 42 08 0c 00 00 	mov    QWORD PTR [rdx+0x8],0xc
    47ed:	00 
    47ee:	25 fb fe ff ff       	and    eax,0xfffffefb
    47f3:	83 c8 04             	or     eax,0x4
    47f6:	89 42 18             	mov    DWORD PTR [rdx+0x18],eax
    47f9:	48 8b 41 e8          	mov    rax,QWORD PTR [rcx-0x18]
    47fd:	48 c7 84 04 20 01 00 	mov    QWORD PTR [rsp+rax*1+0x120],0x20
    4804:	00 20 00 00 00 
    4809:	e8 e2 d8 ff ff       	call   20f0 <_ZNSo9_M_insertIdEERSoT_@plt>
    480e:	ba 04 00 00 00       	mov    edx,0x4
    4813:	48 8d 35 37 38 00 00 	lea    rsi,[rip+0x3837]        # 8051 <_IO_stdin_used+0x51>
    481a:	48 89 df             	mov    rdi,rbx
    481d:	e8 7e d8 ff ff       	call   20a0 <_ZSt16__ostream_insertIcSt11char_traitsIcEERSt13basic_ostreamIT_T0_ES6_PKS3_l@plt>
    4822:	48 8b 84 24 10 01 00 	mov    rax,QWORD PTR [rsp+0x110]
    4829:	00 
    482a:	48 89 df             	mov    rdi,rbx
    482d:	f2 0f 10 84 24 f8 00 	movsd  xmm0,QWORD PTR [rsp+0xf8]
    4834:	00 00 
    4836:	48 8b 40 e8          	mov    rax,QWORD PTR [rax-0x18]
    483a:	48 c7 84 04 20 01 00 	mov    QWORD PTR [rsp+rax*1+0x120],0x20
    4841:	00 20 00 00 00 
    4846:	e8 a5 d8 ff ff       	call   20f0 <_ZNSo9_M_insertIdEERSoT_@plt>
    484b:	48 8b 04 24          	mov    rax,QWORD PTR [rsp]
    484f:	4c 8b 84 24 40 01 00 	mov    r8,QWORD PTR [rsp+0x140]
    4856:	00 
    4857:	48 c7 44 24 78 00 00 	mov    QWORD PTR [rsp+0x78],0x0
    485e:	00 00 
    4860:	c6 84 24 80 00 00 00 	mov    BYTE PTR [rsp+0x80],0x0
    4867:	00 
    4868:	48 89 44 24 70       	mov    QWORD PTR [rsp+0x70],rax
    486d:	4d 85 c0             	test   r8,r8
    4870:	0f 84 2a 05 00 00    	je     4da0 <_Z16AvxPackedMathF64v+0x1d20>
    4876:	48 8b 84 24 30 01 00 	mov    rax,QWORD PTR [rsp+0x130]
    487d:	00 
    487e:	4c 89 c2             	mov    rdx,r8
    4881:	48 8b 7c 24 30       	mov    rdi,QWORD PTR [rsp+0x30]
    4886:	48 8b 8c 24 38 01 00 	mov    rcx,QWORD PTR [rsp+0x138]
    488d:	00 
    488e:	4c 39 c0             	cmp    rax,r8
    4891:	4c 0f 43 c0          	cmovae r8,rax
    4895:	48 85 c0             	test   rax,rax
    4898:	4c 0f 44 c2          	cmove  r8,rdx
    489c:	31 d2                	xor    edx,edx
    489e:	31 f6                	xor    esi,esi
    48a0:	49 29 c8             	sub    r8,rcx
    48a3:	e8 38 d8 ff ff       	call   20e0 <_ZNSt7__cxx1112basic_stringIcSt11char_traitsIcESaIcEE10_M_replaceEmmPKcm@plt>
    48a8:	66 0f 6f 74 24 20    	movdqa xmm6,XMMWORD PTR [rsp+0x20]
    48ae:	48 8b bc 24 60 01 00 	mov    rdi,QWORD PTR [rsp+0x160]
    48b5:	00 
    48b6:	4c 89 bc 24 80 01 00 	mov    QWORD PTR [rsp+0x180],r15
    48bd:	00 
    48be:	0f 29 b4 24 10 01 00 	movaps XMMWORD PTR [rsp+0x110],xmm6
    48c5:	00 
    48c6:	4c 39 f7             	cmp    rdi,r14
    48c9:	74 11                	je     48dc <_Z16AvxPackedMathF64v+0x185c>
    48cb:	48 8b 84 24 70 01 00 	mov    rax,QWORD PTR [rsp+0x170]
    48d2:	00 
    48d3:	48 8d 70 01          	lea    rsi,[rax+0x1]
    48d7:	e8 a4 d7 ff ff       	call   2080 <_ZdlPvm@plt>
    48dc:	48 8b 7c 24 08       	mov    rdi,QWORD PTR [rsp+0x8]
    48e1:	48 8d 05 e0 52 00 00 	lea    rax,[rip+0x52e0]        # 9bc8 <_ZTVSt15basic_streambufIcSt11char_traitsIcEE@GLIBCXX_3.4+0x10>
    48e8:	48 89 84 24 18 01 00 	mov    QWORD PTR [rsp+0x118],rax
    48ef:	00 
    48f0:	e8 db d7 ff ff       	call   20d0 <_ZNSt6localeD1Ev@plt>
    48f5:	48 8b 45 e8          	mov    rax,QWORD PTR [rbp-0x18]
    48f9:	4c 89 e7             	mov    rdi,r12
    48fc:	48 8b 0d 95 53 00 00 	mov    rcx,QWORD PTR [rip+0x5395]        # 9c98 <_ZTTNSt7__cxx1119basic_ostringstreamIcSt11char_traitsIcESaIcEEE@GLIBCXX_3.4.21+0x10>
    4903:	48 89 ac 24 10 01 00 	mov    QWORD PTR [rsp+0x110],rbp
    490a:	00 
    490b:	48 89 8c 04 10 01 00 	mov    QWORD PTR [rsp+rax*1+0x110],rcx
    4912:	00 
    4913:	4c 89 ac 24 80 01 00 	mov    QWORD PTR [rsp+0x180],r13
    491a:	00 
    491b:	e8 40 d7 ff ff       	call   2060 <_ZNSt8ios_baseD2Ev@plt>
    4920:	48 8b 54 24 78       	mov    rdx,QWORD PTR [rsp+0x78]
    4925:	48 8b 74 24 70       	mov    rsi,QWORD PTR [rsp+0x70]
    492a:	48 8d 3d 0f 57 00 00 	lea    rdi,[rip+0x570f]        # a040 <_ZSt4cout@GLIBCXX_3.4>
    4931:	e8 6a d7 ff ff       	call   20a0 <_ZSt16__ostream_insertIcSt11char_traitsIcEERSt13basic_ostreamIT_T0_ES6_PKS3_l@plt>
    4936:	c6 44 24 4f 0a       	mov    BYTE PTR [rsp+0x4f],0xa
    493b:	48 89 c7             	mov    rdi,rax
    493e:	48 8b 00             	mov    rax,QWORD PTR [rax]
    4941:	48 8b 40 e8          	mov    rax,QWORD PTR [rax-0x18]
    4945:	48 83 7c 07 10 00    	cmp    QWORD PTR [rdi+rax*1+0x10],0x0
    494b:	0f 84 7f 03 00 00    	je     4cd0 <_Z16AvxPackedMathF64v+0x1c50>
    4951:	48 8d 74 24 4f       	lea    rsi,[rsp+0x4f]
    4956:	ba 01 00 00 00       	mov    edx,0x1
    495b:	e8 40 d7 ff ff       	call   20a0 <_ZSt16__ostream_insertIcSt11char_traitsIcEERSt13basic_ostreamIT_T0_ES6_PKS3_l@plt>
    4960:	48 8b 7c 24 70       	mov    rdi,QWORD PTR [rsp+0x70]
    4965:	48 8b 04 24          	mov    rax,QWORD PTR [rsp]
    4969:	48 39 c7             	cmp    rdi,rax
    496c:	74 11                	je     497f <_Z16AvxPackedMathF64v+0x18ff>
    496e:	48 8b 84 24 80 00 00 	mov    rax,QWORD PTR [rsp+0x80]
    4975:	00 
    4976:	48 8d 70 01          	lea    rsi,[rax+0x1]
    497a:	e8 01 d7 ff ff       	call   2080 <_ZdlPvm@plt>
    497f:	48 8d 35 20 37 00 00 	lea    rsi,[rip+0x3720]        # 80a6 <_IO_stdin_used+0xa6>
    4986:	ba 09 00 00 00       	mov    edx,0x9
    498b:	48 8d 3d ae 56 00 00 	lea    rdi,[rip+0x56ae]        # a040 <_ZSt4cout@GLIBCXX_3.4>
    4992:	e8 09 d7 ff ff       	call   20a0 <_ZSt16__ostream_insertIcSt11char_traitsIcEERSt13basic_ostreamIT_T0_ES6_PKS3_l@plt>
    4997:	4c 89 e7             	mov    rdi,r12
    499a:	e8 b1 d6 ff ff       	call   2050 <_ZNSt8ios_baseC2Ev@plt>
    499f:	31 c0                	xor    eax,eax
    49a1:	66 0f ef c0          	pxor   xmm0,xmm0
    49a5:	31 f6                	xor    esi,esi
    49a7:	66 89 84 24 60 02 00 	mov    WORD PTR [rsp+0x260],ax
    49ae:	00 
    49af:	48 8b 05 e2 52 00 00 	mov    rax,QWORD PTR [rip+0x52e2]        # 9c98 <_ZTTNSt7__cxx1119basic_ostringstreamIcSt11char_traitsIcESaIcEEE@GLIBCXX_3.4.21+0x10>
    49b6:	0f 11 84 24 68 02 00 	movups XMMWORD PTR [rsp+0x268],xmm0
    49bd:	00 
    49be:	0f 11 84 24 78 02 00 	movups XMMWORD PTR [rsp+0x278],xmm0
    49c5:	00 
    49c6:	48 8b 7d e8          	mov    rdi,QWORD PTR [rbp-0x18]
    49ca:	4c 89 ac 24 80 01 00 	mov    QWORD PTR [rsp+0x180],r13
    49d1:	00 
    49d2:	48 01 df             	add    rdi,rbx
    49d5:	48 89 ac 24 10 01 00 	mov    QWORD PTR [rsp+0x110],rbp
    49dc:	00 
    49dd:	48 c7 84 24 58 02 00 	mov    QWORD PTR [rsp+0x258],0x0
    49e4:	00 00 00 00 00 
    49e9:	48 89 07             	mov    QWORD PTR [rdi],rax
    49ec:	e8 cf d6 ff ff       	call   20c0 <_ZNSt9basic_iosIcSt11char_traitsIcEE4initEPSt15basic_streambufIcS1_E@plt>
    49f1:	66 0f 6f 7c 24 10    	movdqa xmm7,XMMWORD PTR [rsp+0x10]
    49f7:	48 8b 7c 24 08       	mov    rdi,QWORD PTR [rsp+0x8]
    49fc:	66 0f ef c0          	pxor   xmm0,xmm0
    4a00:	4c 89 bc 24 80 01 00 	mov    QWORD PTR [rsp+0x180],r15
    4a07:	00 
    4a08:	0f 29 84 24 20 01 00 	movaps XMMWORD PTR [rsp+0x120],xmm0
    4a0f:	00 
    4a10:	0f 29 bc 24 10 01 00 	movaps XMMWORD PTR [rsp+0x110],xmm7
    4a17:	00 
    4a18:	0f 29 84 24 30 01 00 	movaps XMMWORD PTR [rsp+0x130],xmm0
    4a1f:	00 
    4a20:	0f 29 84 24 40 01 00 	movaps XMMWORD PTR [rsp+0x140],xmm0
    4a27:	00 
    4a28:	e8 e3 d6 ff ff       	call   2110 <_ZNSt6localeC1Ev@plt>
    4a2d:	48 8b 74 24 38       	mov    rsi,QWORD PTR [rsp+0x38]
    4a32:	4c 89 e7             	mov    rdi,r12
    4a35:	48 8d 05 7c 52 00 00 	lea    rax,[rip+0x527c]        # 9cb8 <_ZTVNSt7__cxx1115basic_stringbufIcSt11char_traitsIcESaIcEEE@GLIBCXX_3.4.21+0x10>
    4a3c:	48 89 84 24 18 01 00 	mov    QWORD PTR [rsp+0x118],rax
    4a43:	00 
    4a44:	c7 84 24 58 01 00 00 	mov    DWORD PTR [rsp+0x158],0x10
    4a4b:	10 00 00 00 
    4a4f:	4c 89 b4 24 60 01 00 	mov    QWORD PTR [rsp+0x160],r14
    4a56:	00 
    4a57:	48 c7 84 24 68 01 00 	mov    QWORD PTR [rsp+0x168],0x0
    4a5e:	00 00 00 00 00 
    4a63:	c6 84 24 70 01 00 00 	mov    BYTE PTR [rsp+0x170],0x0
    4a6a:	00 
    4a6b:	e8 50 d6 ff ff       	call   20c0 <_ZNSt9basic_iosIcSt11char_traitsIcEE4initEPSt15basic_streambufIcS1_E@plt>
    4a70:	48 8b 8c 24 10 01 00 	mov    rcx,QWORD PTR [rsp+0x110]
    4a77:	00 
    4a78:	48 89 df             	mov    rdi,rbx
    4a7b:	f2 0f 10 84 24 00 01 	movsd  xmm0,QWORD PTR [rsp+0x100]
    4a82:	00 00 
    4a84:	48 8b 51 e8          	mov    rdx,QWORD PTR [rcx-0x18]
    4a88:	48 01 da             	add    rdx,rbx
    4a8b:	8b 42 18             	mov    eax,DWORD PTR [rdx+0x18]
    4a8e:	48 c7 42 08 0c 00 00 	mov    QWORD PTR [rdx+0x8],0xc
    4a95:	00 
    4a96:	25 fb fe ff ff       	and    eax,0xfffffefb
    4a9b:	83 c8 04             	or     eax,0x4
    4a9e:	89 42 18             	mov    DWORD PTR [rdx+0x18],eax
    4aa1:	48 8b 41 e8          	mov    rax,QWORD PTR [rcx-0x18]
    4aa5:	48 c7 84 04 20 01 00 	mov    QWORD PTR [rsp+rax*1+0x120],0x20
    4aac:	00 20 00 00 00 
    4ab1:	e8 3a d6 ff ff       	call   20f0 <_ZNSo9_M_insertIdEERSoT_@plt>
    4ab6:	ba 04 00 00 00       	mov    edx,0x4
    4abb:	48 8d 35 8f 35 00 00 	lea    rsi,[rip+0x358f]        # 8051 <_IO_stdin_used+0x51>
    4ac2:	48 89 df             	mov    rdi,rbx
    4ac5:	e8 d6 d5 ff ff       	call   20a0 <_ZSt16__ostream_insertIcSt11char_traitsIcEERSt13basic_ostreamIT_T0_ES6_PKS3_l@plt>
    4aca:	48 8b 84 24 10 01 00 	mov    rax,QWORD PTR [rsp+0x110]
    4ad1:	00 
    4ad2:	48 89 df             	mov    rdi,rbx
    4ad5:	f2 0f 10 84 24 08 01 	movsd  xmm0,QWORD PTR [rsp+0x108]
    4adc:	00 00 
    4ade:	48 8b 40 e8          	mov    rax,QWORD PTR [rax-0x18]
    4ae2:	48 c7 84 04 20 01 00 	mov    QWORD PTR [rsp+rax*1+0x120],0x20
    4ae9:	00 20 00 00 00 
    4aee:	e8 fd d5 ff ff       	call   20f0 <_ZNSo9_M_insertIdEERSoT_@plt>
    4af3:	48 8b 04 24          	mov    rax,QWORD PTR [rsp]
    4af7:	4c 8b 84 24 40 01 00 	mov    r8,QWORD PTR [rsp+0x140]
    4afe:	00 
    4aff:	48 c7 44 24 78 00 00 	mov    QWORD PTR [rsp+0x78],0x0
    4b06:	00 00 
    4b08:	c6 84 24 80 00 00 00 	mov    BYTE PTR [rsp+0x80],0x0
    4b0f:	00 
    4b10:	48 89 44 24 70       	mov    QWORD PTR [rsp+0x70],rax
    4b15:	4d 85 c0             	test   r8,r8
    4b18:	0f 84 02 02 00 00    	je     4d20 <_Z16AvxPackedMathF64v+0x1ca0>
    4b1e:	48 8b 84 24 30 01 00 	mov    rax,QWORD PTR [rsp+0x130]
    4b25:	00 
    4b26:	4c 89 c2             	mov    rdx,r8
    4b29:	48 8b 7c 24 30       	mov    rdi,QWORD PTR [rsp+0x30]
    4b2e:	48 8b 8c 24 38 01 00 	mov    rcx,QWORD PTR [rsp+0x138]
    4b35:	00 
    4b36:	4c 39 c0             	cmp    rax,r8
    4b39:	4c 0f 43 c0          	cmovae r8,rax
    4b3d:	48 85 c0             	test   rax,rax
    4b40:	4c 0f 44 c2          	cmove  r8,rdx
    4b44:	31 d2                	xor    edx,edx
    4b46:	31 f6                	xor    esi,esi
    4b48:	49 29 c8             	sub    r8,rcx
    4b4b:	e8 90 d5 ff ff       	call   20e0 <_ZNSt7__cxx1112basic_stringIcSt11char_traitsIcESaIcEE10_M_replaceEmmPKcm@plt>
    4b50:	66 0f 6f 5c 24 20    	movdqa xmm3,XMMWORD PTR [rsp+0x20]
    4b56:	48 8b bc 24 60 01 00 	mov    rdi,QWORD PTR [rsp+0x160]
    4b5d:	00 
    4b5e:	4c 89 bc 24 80 01 00 	mov    QWORD PTR [rsp+0x180],r15
    4b65:	00 
    4b66:	0f 29 9c 24 10 01 00 	movaps XMMWORD PTR [rsp+0x110],xmm3
    4b6d:	00 
    4b6e:	4c 39 f7             	cmp    rdi,r14
    4b71:	74 11                	je     4b84 <_Z16AvxPackedMathF64v+0x1b04>
    4b73:	48 8b 84 24 70 01 00 	mov    rax,QWORD PTR [rsp+0x170]
    4b7a:	00 
    4b7b:	48 8d 70 01          	lea    rsi,[rax+0x1]
    4b7f:	e8 fc d4 ff ff       	call   2080 <_ZdlPvm@plt>
    4b84:	48 8b 7c 24 08       	mov    rdi,QWORD PTR [rsp+0x8]
    4b89:	48 8d 05 38 50 00 00 	lea    rax,[rip+0x5038]        # 9bc8 <_ZTVSt15basic_streambufIcSt11char_traitsIcEE@GLIBCXX_3.4+0x10>
    4b90:	48 89 84 24 18 01 00 	mov    QWORD PTR [rsp+0x118],rax
    4b97:	00 
    4b98:	e8 33 d5 ff ff       	call   20d0 <_ZNSt6localeD1Ev@plt>
    4b9d:	48 8b 45 e8          	mov    rax,QWORD PTR [rbp-0x18]
    4ba1:	4c 89 e7             	mov    rdi,r12
    4ba4:	48 8b 1d ed 50 00 00 	mov    rbx,QWORD PTR [rip+0x50ed]        # 9c98 <_ZTTNSt7__cxx1119basic_ostringstreamIcSt11char_traitsIcESaIcEEE@GLIBCXX_3.4.21+0x10>
    4bab:	48 89 ac 24 10 01 00 	mov    QWORD PTR [rsp+0x110],rbp
    4bb2:	00 
    4bb3:	48 89 9c 04 10 01 00 	mov    QWORD PTR [rsp+rax*1+0x110],rbx
    4bba:	00 
    4bbb:	4c 89 ac 24 80 01 00 	mov    QWORD PTR [rsp+0x180],r13
    4bc2:	00 
    4bc3:	e8 98 d4 ff ff       	call   2060 <_ZNSt8ios_baseD2Ev@plt>
    4bc8:	48 8b 54 24 78       	mov    rdx,QWORD PTR [rsp+0x78]
    4bcd:	48 8b 74 24 70       	mov    rsi,QWORD PTR [rsp+0x70]
    4bd2:	48 8d 3d 67 54 00 00 	lea    rdi,[rip+0x5467]        # a040 <_ZSt4cout@GLIBCXX_3.4>
    4bd9:	e8 c2 d4 ff ff       	call   20a0 <_ZSt16__ostream_insertIcSt11char_traitsIcEERSt13basic_ostreamIT_T0_ES6_PKS3_l@plt>
    4bde:	c6 44 24 4f 0a       	mov    BYTE PTR [rsp+0x4f],0xa
    4be3:	48 89 c7             	mov    rdi,rax
    4be6:	48 8b 00             	mov    rax,QWORD PTR [rax]
    4be9:	48 8b 40 e8          	mov    rax,QWORD PTR [rax-0x18]
    4bed:	48 83 7c 07 10 00    	cmp    QWORD PTR [rdi+rax*1+0x10],0x0
    4bf3:	0f 84 17 01 00 00    	je     4d10 <_Z16AvxPackedMathF64v+0x1c90>
    4bf9:	48 8d 74 24 4f       	lea    rsi,[rsp+0x4f]
    4bfe:	ba 01 00 00 00       	mov    edx,0x1
    4c03:	e8 98 d4 ff ff       	call   20a0 <_ZSt16__ostream_insertIcSt11char_traitsIcEERSt13basic_ostreamIT_T0_ES6_PKS3_l@plt>
    4c08:	48 8b 7c 24 70       	mov    rdi,QWORD PTR [rsp+0x70]
    4c0d:	48 8b 04 24          	mov    rax,QWORD PTR [rsp]
    4c11:	48 39 c7             	cmp    rdi,rax
    4c14:	74 11                	je     4c27 <_Z16AvxPackedMathF64v+0x1ba7>
    4c16:	48 8b 84 24 80 00 00 	mov    rax,QWORD PTR [rsp+0x80]
    4c1d:	00 
    4c1e:	48 8d 70 01          	lea    rsi,[rax+0x1]
    4c22:	e8 59 d4 ff ff       	call   2080 <_ZdlPvm@plt>
    4c27:	48 8b 84 24 88 02 00 	mov    rax,QWORD PTR [rsp+0x288]
    4c2e:	00 
    4c2f:	64 48 2b 04 25 28 00 	sub    rax,QWORD PTR fs:0x28
    4c36:	00 00 
    4c38:	0f 85 19 02 00 00    	jne    4e57 <_Z16AvxPackedMathF64v+0x1dd7>
    4c3e:	48 81 c4 98 02 00 00 	add    rsp,0x298
    4c45:	5b                   	pop    rbx
    4c46:	5d                   	pop    rbp
    4c47:	41 5c                	pop    r12
    4c49:	41 5d                	pop    r13
    4c4b:	41 5e                	pop    r14
    4c4d:	41 5f                	pop    r15
    4c4f:	c3                   	ret
    4c50:	48 8d 74 24 4f       	lea    rsi,[rsp+0x4f]
    4c55:	ba 01 00 00 00       	mov    edx,0x1
    4c5a:	e8 41 d4 ff ff       	call   20a0 <_ZSt16__ostream_insertIcSt11char_traitsIcEERSt13basic_ostreamIT_T0_ES6_PKS3_l@plt>
    4c5f:	e9 85 e7 ff ff       	jmp    33e9 <_Z16AvxPackedMathF64v+0x369>
    4c64:	0f 1f 40 00          	nop    DWORD PTR [rax+0x0]
    4c68:	be 0a 00 00 00       	mov    esi,0xa
    4c6d:	e8 be d3 ff ff       	call   2030 <_ZNSo3putEc@plt>
    4c72:	e9 f5 ec ff ff       	jmp    396c <_Z16AvxPackedMathF64v+0x8ec>
    4c77:	66 0f 1f 84 00 00 00 	nop    WORD PTR [rax+rax*1+0x0]
    4c7e:	00 00 
    4c80:	be 0a 00 00 00       	mov    esi,0xa
    4c85:	48 8d 3d b4 53 00 00 	lea    rdi,[rip+0x53b4]        # a040 <_ZSt4cout@GLIBCXX_3.4>
    4c8c:	e8 9f d3 ff ff       	call   2030 <_ZNSo3putEc@plt>
    4c91:	e9 4b ea ff ff       	jmp    36e1 <_Z16AvxPackedMathF64v+0x661>
    4c96:	66 2e 0f 1f 84 00 00 	cs nop WORD PTR [rax+rax*1+0x0]
    4c9d:	00 00 00 
    4ca0:	be 0a 00 00 00       	mov    esi,0xa
    4ca5:	e8 86 d3 ff ff       	call   2030 <_ZNSo3putEc@plt>
    4caa:	e9 de e9 ff ff       	jmp    368d <_Z16AvxPackedMathF64v+0x60d>
    4caf:	90                   	nop
    4cb0:	be 0a 00 00 00       	mov    esi,0xa
    4cb5:	e8 76 d3 ff ff       	call   2030 <_ZNSo3putEc@plt>
    4cba:	e9 01 f2 ff ff       	jmp    3ec0 <_Z16AvxPackedMathF64v+0xe40>
    4cbf:	90                   	nop
    4cc0:	be 0a 00 00 00       	mov    esi,0xa
    4cc5:	e8 66 d3 ff ff       	call   2030 <_ZNSo3putEc@plt>
    4cca:	e9 47 ef ff ff       	jmp    3c16 <_Z16AvxPackedMathF64v+0xb96>
    4ccf:	90                   	nop
    4cd0:	be 0a 00 00 00       	mov    esi,0xa
    4cd5:	e8 56 d3 ff ff       	call   2030 <_ZNSo3putEc@plt>
    4cda:	e9 81 fc ff ff       	jmp    4960 <_Z16AvxPackedMathF64v+0x18e0>
    4cdf:	90                   	nop
    4ce0:	be 0a 00 00 00       	mov    esi,0xa
    4ce5:	e8 46 d3 ff ff       	call   2030 <_ZNSo3putEc@plt>
    4cea:	e9 c9 f9 ff ff       	jmp    46b8 <_Z16AvxPackedMathF64v+0x1638>
    4cef:	90                   	nop
    4cf0:	be 0a 00 00 00       	mov    esi,0xa
    4cf5:	e8 36 d3 ff ff       	call   2030 <_ZNSo3putEc@plt>
    4cfa:	e9 11 f7 ff ff       	jmp    4410 <_Z16AvxPackedMathF64v+0x1390>
    4cff:	90                   	nop
    4d00:	be 0a 00 00 00       	mov    esi,0xa
    4d05:	e8 26 d3 ff ff       	call   2030 <_ZNSo3putEc@plt>
    4d0a:	e9 59 f4 ff ff       	jmp    4168 <_Z16AvxPackedMathF64v+0x10e8>
    4d0f:	90                   	nop
    4d10:	be 0a 00 00 00       	mov    esi,0xa
    4d15:	e8 16 d3 ff ff       	call   2030 <_ZNSo3putEc@plt>
    4d1a:	e9 e9 fe ff ff       	jmp    4c08 <_Z16AvxPackedMathF64v+0x1b88>
    4d1f:	90                   	nop
    4d20:	48 8b 7c 24 30       	mov    rdi,QWORD PTR [rsp+0x30]
    4d25:	48 8d b4 24 60 01 00 	lea    rsi,[rsp+0x160]
    4d2c:	00 
    4d2d:	e8 3e d3 ff ff       	call   2070 <_ZNSt7__cxx1112basic_stringIcSt11char_traitsIcESaIcEE9_M_assignERKS4_@plt>
    4d32:	e9 19 fe ff ff       	jmp    4b50 <_Z16AvxPackedMathF64v+0x1ad0>
    4d37:	66 0f 1f 84 00 00 00 	nop    WORD PTR [rax+rax*1+0x0]
    4d3e:	00 00 
    4d40:	48 8b 7c 24 30       	mov    rdi,QWORD PTR [rsp+0x30]
    4d45:	48 8d b4 24 60 01 00 	lea    rsi,[rsp+0x160]
    4d4c:	00 
    4d4d:	e8 1e d3 ff ff       	call   2070 <_ZNSt7__cxx1112basic_stringIcSt11char_traitsIcESaIcEE9_M_assignERKS4_@plt>
    4d52:	e9 df e5 ff ff       	jmp    3336 <_Z16AvxPackedMathF64v+0x2b6>
    4d57:	66 0f 1f 84 00 00 00 	nop    WORD PTR [rax+rax*1+0x0]
    4d5e:	00 00 
    4d60:	48 8b 7c 24 30       	mov    rdi,QWORD PTR [rsp+0x30]
    4d65:	48 8d b4 24 60 01 00 	lea    rsi,[rsp+0x160]
    4d6c:	00 
    4d6d:	e8 fe d2 ff ff       	call   2070 <_ZNSt7__cxx1112basic_stringIcSt11char_traitsIcESaIcEE9_M_assignERKS4_@plt>
    4d72:	e9 e1 f5 ff ff       	jmp    4358 <_Z16AvxPackedMathF64v+0x12d8>
    4d77:	66 0f 1f 84 00 00 00 	nop    WORD PTR [rax+rax*1+0x0]
    4d7e:	00 00 
    4d80:	48 8b 7c 24 30       	mov    rdi,QWORD PTR [rsp+0x30]
    4d85:	48 8d b4 24 60 01 00 	lea    rsi,[rsp+0x160]
    4d8c:	00 
    4d8d:	e8 de d2 ff ff       	call   2070 <_ZNSt7__cxx1112basic_stringIcSt11char_traitsIcESaIcEE9_M_assignERKS4_@plt>
    4d92:	e9 19 f3 ff ff       	jmp    40b0 <_Z16AvxPackedMathF64v+0x1030>
    4d97:	66 0f 1f 84 00 00 00 	nop    WORD PTR [rax+rax*1+0x0]
    4d9e:	00 00 
    4da0:	48 8b 7c 24 30       	mov    rdi,QWORD PTR [rsp+0x30]
    4da5:	48 8d b4 24 60 01 00 	lea    rsi,[rsp+0x160]
    4dac:	00 
    4dad:	e8 be d2 ff ff       	call   2070 <_ZNSt7__cxx1112basic_stringIcSt11char_traitsIcESaIcEE9_M_assignERKS4_@plt>
    4db2:	e9 f1 fa ff ff       	jmp    48a8 <_Z16AvxPackedMathF64v+0x1828>
    4db7:	66 0f 1f 84 00 00 00 	nop    WORD PTR [rax+rax*1+0x0]
    4dbe:	00 00 
    4dc0:	48 8b 7c 24 30       	mov    rdi,QWORD PTR [rsp+0x30]
    4dc5:	48 8d b4 24 60 01 00 	lea    rsi,[rsp+0x160]
    4dcc:	00 
    4dcd:	e8 9e d2 ff ff       	call   2070 <_ZNSt7__cxx1112basic_stringIcSt11char_traitsIcESaIcEE9_M_assignERKS4_@plt>
    4dd2:	e9 29 f8 ff ff       	jmp    4600 <_Z16AvxPackedMathF64v+0x1580>
    4dd7:	66 0f 1f 84 00 00 00 	nop    WORD PTR [rax+rax*1+0x0]
    4dde:	00 00 
    4de0:	48 8b 7c 24 30       	mov    rdi,QWORD PTR [rsp+0x30]
    4de5:	48 8d b4 24 60 01 00 	lea    rsi,[rsp+0x160]
    4dec:	00 
    4ded:	e8 7e d2 ff ff       	call   2070 <_ZNSt7__cxx1112basic_stringIcSt11char_traitsIcESaIcEE9_M_assignERKS4_@plt>
    4df2:	e9 11 f0 ff ff       	jmp    3e08 <_Z16AvxPackedMathF64v+0xd88>
    4df7:	66 0f 1f 84 00 00 00 	nop    WORD PTR [rax+rax*1+0x0]
    4dfe:	00 00 
    4e00:	48 8b 7c 24 30       	mov    rdi,QWORD PTR [rsp+0x30]
    4e05:	48 8d b4 24 60 01 00 	lea    rsi,[rsp+0x160]
    4e0c:	00 
    4e0d:	e8 5e d2 ff ff       	call   2070 <_ZNSt7__cxx1112basic_stringIcSt11char_traitsIcESaIcEE9_M_assignERKS4_@plt>
    4e12:	e9 47 ed ff ff       	jmp    3b5e <_Z16AvxPackedMathF64v+0xade>
    4e17:	66 0f 1f 84 00 00 00 	nop    WORD PTR [rax+rax*1+0x0]
    4e1e:	00 00 
    4e20:	48 8b 7c 24 30       	mov    rdi,QWORD PTR [rsp+0x30]
    4e25:	48 8d b4 24 60 01 00 	lea    rsi,[rsp+0x160]
    4e2c:	00 
    4e2d:	e8 3e d2 ff ff       	call   2070 <_ZNSt7__cxx1112basic_stringIcSt11char_traitsIcESaIcEE9_M_assignERKS4_@plt>
    4e32:	e9 9e e7 ff ff       	jmp    35d5 <_Z16AvxPackedMathF64v+0x555>
    4e37:	66 0f 1f 84 00 00 00 	nop    WORD PTR [rax+rax*1+0x0]
    4e3e:	00 00 
    4e40:	48 8b 7c 24 30       	mov    rdi,QWORD PTR [rsp+0x30]
    4e45:	48 8d b4 24 60 01 00 	lea    rsi,[rsp+0x160]
    4e4c:	00 
    4e4d:	e8 1e d2 ff ff       	call   2070 <_ZNSt7__cxx1112basic_stringIcSt11char_traitsIcESaIcEE9_M_assignERKS4_@plt>
    4e52:	e9 5d ea ff ff       	jmp    38b4 <_Z16AvxPackedMathF64v+0x834>
    4e57:	e8 34 d2 ff ff       	call   2090 <__stack_chk_fail@plt>
    4e5c:	f3 0f 1e fa          	endbr64
    4e60:	48 89 c5             	mov    rbp,rax
    4e63:	e9 d2 d2 ff ff       	jmp    213a <_Z16AvxPackedMathF64v.cold+0xa>
    4e68:	f3 0f 1e fa          	endbr64
    4e6c:	48 89 c3             	mov    rbx,rax
    4e6f:	e9 e9 d2 ff ff       	jmp    215d <_Z16AvxPackedMathF64v.cold+0x2d>
    4e74:	f3 0f 1e fa          	endbr64
    4e78:	48 89 c5             	mov    rbp,rax
    4e7b:	e9 b0 d2 ff ff       	jmp    2130 <_Z16AvxPackedMathF64v.cold>
    4e80:	f3 0f 1e fa          	endbr64
    4e84:	48 89 c3             	mov    rbx,rax
    4e87:	e9 00 d3 ff ff       	jmp    218c <_Z16AvxPackedMathF64v.cold+0x5c>
    4e8c:	f3 0f 1e fa          	endbr64
    4e90:	48 89 c3             	mov    rbx,rax
    4e93:	e9 19 d3 ff ff       	jmp    21b1 <_Z16AvxPackedMathF64v.cold+0x81>
    4e98:	f3 0f 1e fa          	endbr64
    4e9c:	48 89 c3             	mov    rbx,rax
    4e9f:	e9 5d d3 ff ff       	jmp    2201 <_Z16AvxPackedMathF64v.cold+0xd1>
    4ea4:	f3 0f 1e fa          	endbr64
    4ea8:	48 89 c3             	mov    rbx,rax
    4eab:	e9 2c d3 ff ff       	jmp    21dc <_Z16AvxPackedMathF64v.cold+0xac>
    4eb0:	f3 0f 1e fa          	endbr64
    4eb4:	48 89 c5             	mov    rbp,rax
    4eb7:	e9 84 d3 ff ff       	jmp    2240 <_Z16AvxPackedMathF64v.cold+0x110>
    4ebc:	f3 0f 1e fa          	endbr64
    4ec0:	48 89 c5             	mov    rbp,rax
    4ec3:	e9 6e d3 ff ff       	jmp    2236 <_Z16AvxPackedMathF64v.cold+0x106>
    4ec8:	f3 0f 1e fa          	endbr64
    4ecc:	48 89 c3             	mov    rbx,rax
    4ecf:	e9 8f d3 ff ff       	jmp    2263 <_Z16AvxPackedMathF64v.cold+0x133>
    4ed4:	f3 0f 1e fa          	endbr64
    4ed8:	48 89 c3             	mov    rbx,rax
    4edb:	e9 d7 d3 ff ff       	jmp    22b7 <_Z16AvxPackedMathF64v.cold+0x187>
    4ee0:	f3 0f 1e fa          	endbr64
    4ee4:	48 89 c3             	mov    rbx,rax
    4ee7:	e9 a6 d3 ff ff       	jmp    2292 <_Z16AvxPackedMathF64v.cold+0x162>
    4eec:	f3 0f 1e fa          	endbr64
    4ef0:	48 89 c5             	mov    rbp,rax
    4ef3:	e9 f9 d3 ff ff       	jmp    22f1 <_Z16AvxPackedMathF64v.cold+0x1c1>
    4ef8:	f3 0f 1e fa          	endbr64
    4efc:	48 89 c5             	mov    rbp,rax
    4eff:	e9 e3 d3 ff ff       	jmp    22e7 <_Z16AvxPackedMathF64v.cold+0x1b7>
    4f04:	f3 0f 1e fa          	endbr64
    4f08:	48 89 c3             	mov    rbx,rax
    4f0b:	e9 09 d4 ff ff       	jmp    2319 <_Z16AvxPackedMathF64v.cold+0x1e9>
    4f10:	f3 0f 1e fa          	endbr64
    4f14:	48 89 c3             	mov    rbx,rax
    4f17:	e9 47 d4 ff ff       	jmp    2363 <_Z16AvxPackedMathF64v.cold+0x233>
    4f1c:	f3 0f 1e fa          	endbr64
    4f20:	48 89 c3             	mov    rbx,rax
    4f23:	e9 16 d4 ff ff       	jmp    233e <_Z16AvxPackedMathF64v.cold+0x20e>
    4f28:	f3 0f 1e fa          	endbr64
    4f2c:	48 89 c5             	mov    rbp,rax
    4f2f:	e9 69 d4 ff ff       	jmp    239d <_Z16AvxPackedMathF64v.cold+0x26d>
    4f34:	f3 0f 1e fa          	endbr64
    4f38:	48 89 c5             	mov    rbp,rax
    4f3b:	e9 53 d4 ff ff       	jmp    2393 <_Z16AvxPackedMathF64v.cold+0x263>
    4f40:	f3 0f 1e fa          	endbr64
    4f44:	48 89 c3             	mov    rbx,rax
    4f47:	e9 7e d4 ff ff       	jmp    23ca <_Z16AvxPackedMathF64v.cold+0x29a>
    4f4c:	f3 0f 1e fa          	endbr64
    4f50:	48 89 c3             	mov    rbx,rax
    4f53:	e9 bc d4 ff ff       	jmp    2414 <_Z16AvxPackedMathF64v.cold+0x2e4>
    4f58:	f3 0f 1e fa          	endbr64
    4f5c:	48 89 c3             	mov    rbx,rax
    4f5f:	e9 8b d4 ff ff       	jmp    23ef <_Z16AvxPackedMathF64v.cold+0x2bf>
    4f64:	f3 0f 1e fa          	endbr64
    4f68:	48 89 c5             	mov    rbp,rax
    4f6b:	e9 e3 d4 ff ff       	jmp    2453 <_Z16AvxPackedMathF64v.cold+0x323>
    4f70:	f3 0f 1e fa          	endbr64
    4f74:	48 89 c5             	mov    rbp,rax
    4f77:	e9 cd d4 ff ff       	jmp    2449 <_Z16AvxPackedMathF64v.cold+0x319>
    4f7c:	f3 0f 1e fa          	endbr64
    4f80:	48 89 c3             	mov    rbx,rax
    4f83:	e9 f3 d4 ff ff       	jmp    247b <_Z16AvxPackedMathF64v.cold+0x34b>
    4f88:	f3 0f 1e fa          	endbr64
    4f8c:	48 89 c3             	mov    rbx,rax
    4f8f:	e9 31 d5 ff ff       	jmp    24c5 <_Z16AvxPackedMathF64v.cold+0x395>
    4f94:	f3 0f 1e fa          	endbr64
    4f98:	48 89 c3             	mov    rbx,rax
    4f9b:	e9 00 d5 ff ff       	jmp    24a0 <_Z16AvxPackedMathF64v.cold+0x370>
    4fa0:	f3 0f 1e fa          	endbr64
    4fa4:	48 89 c5             	mov    rbp,rax
    4fa7:	e9 58 d5 ff ff       	jmp    2504 <_Z16AvxPackedMathF64v.cold+0x3d4>
    4fac:	f3 0f 1e fa          	endbr64
    4fb0:	48 89 c5             	mov    rbp,rax
    4fb3:	e9 42 d5 ff ff       	jmp    24fa <_Z16AvxPackedMathF64v.cold+0x3ca>
    4fb8:	f3 0f 1e fa          	endbr64
    4fbc:	48 89 c3             	mov    rbx,rax
    4fbf:	e9 63 d5 ff ff       	jmp    2527 <_Z16AvxPackedMathF64v.cold+0x3f7>
    4fc4:	f3 0f 1e fa          	endbr64
    4fc8:	48 89 c3             	mov    rbx,rax
    4fcb:	e9 ab d5 ff ff       	jmp    257b <_Z16AvxPackedMathF64v.cold+0x44b>
    4fd0:	f3 0f 1e fa          	endbr64
    4fd4:	48 89 c3             	mov    rbx,rax
    4fd7:	e9 7a d5 ff ff       	jmp    2556 <_Z16AvxPackedMathF64v.cold+0x426>
    4fdc:	f3 0f 1e fa          	endbr64
    4fe0:	48 89 c5             	mov    rbp,rax
    4fe3:	e9 cd d5 ff ff       	jmp    25b5 <_Z16AvxPackedMathF64v.cold+0x485>
    4fe8:	f3 0f 1e fa          	endbr64
    4fec:	48 89 c5             	mov    rbp,rax
    4fef:	e9 b7 d5 ff ff       	jmp    25ab <_Z16AvxPackedMathF64v.cold+0x47b>
    4ff4:	f3 0f 1e fa          	endbr64
    4ff8:	48 89 c3             	mov    rbx,rax
    4ffb:	e9 dd d5 ff ff       	jmp    25dd <_Z16AvxPackedMathF64v.cold+0x4ad>
    5000:	f3 0f 1e fa          	endbr64
    5004:	48 89 c3             	mov    rbx,rax
    5007:	e9 1b d6 ff ff       	jmp    2627 <_Z16AvxPackedMathF64v.cold+0x4f7>
    500c:	f3 0f 1e fa          	endbr64
    5010:	48 89 c5             	mov    rbp,rax
    5013:	e9 4d d6 ff ff       	jmp    2665 <_Z16AvxPackedMathF64v.cold+0x535>
    5018:	f3 0f 1e fa          	endbr64
    501c:	48 89 c5             	mov    rbp,rax
    501f:	e9 37 d6 ff ff       	jmp    265b <_Z16AvxPackedMathF64v.cold+0x52b>
    5024:	f3 0f 1e fa          	endbr64
    5028:	48 89 c3             	mov    rbx,rax
    502b:	e9 5d d6 ff ff       	jmp    268d <_Z16AvxPackedMathF64v.cold+0x55d>
    5030:	f3 0f 1e fa          	endbr64
    5034:	48 89 c3             	mov    rbx,rax
    5037:	e9 9b d6 ff ff       	jmp    26d7 <_Z16AvxPackedMathF64v.cold+0x5a7>
    503c:	f3 0f 1e fa          	endbr64
    5040:	48 89 c3             	mov    rbx,rax
    5043:	e9 6a d6 ff ff       	jmp    26b2 <_Z16AvxPackedMathF64v.cold+0x582>
    5048:	f3 0f 1e fa          	endbr64
    504c:	48 89 c5             	mov    rbp,rax
    504f:	e9 c2 d6 ff ff       	jmp    2716 <_Z16AvxPackedMathF64v.cold+0x5e6>
    5054:	f3 0f 1e fa          	endbr64
    5058:	48 89 c5             	mov    rbp,rax
    505b:	e9 ac d6 ff ff       	jmp    270c <_Z16AvxPackedMathF64v.cold+0x5dc>
    5060:	f3 0f 1e fa          	endbr64
    5064:	48 89 c3             	mov    rbx,rax
    5067:	e9 cd d6 ff ff       	jmp    2739 <_Z16AvxPackedMathF64v.cold+0x609>
    506c:	f3 0f 1e fa          	endbr64
    5070:	48 89 c5             	mov    rbp,rax
    5073:	e9 f0 d6 ff ff       	jmp    2768 <_Z16AvxPackedMathF64v.cold+0x638>
    5078:	f3 0f 1e fa          	endbr64
    507c:	48 89 c3             	mov    rbx,rax
    507f:	e9 11 d7 ff ff       	jmp    2795 <_Z16AvxPackedMathF64v.cold+0x665>
    5084:	f3 0f 1e fa          	endbr64
    5088:	48 89 c3             	mov    rbx,rax
    508b:	e9 72 d5 ff ff       	jmp    2602 <_Z16AvxPackedMathF64v.cold+0x4d2>
    5090:	f3 0f 1e fa          	endbr64
    5094:	48 89 c5             	mov    rbp,rax
    5097:	e9 d6 d6 ff ff       	jmp    2772 <_Z16AvxPackedMathF64v.cold+0x642>
    509c:	f3 0f 1e fa          	endbr64
    50a0:	48 89 c3             	mov    rbx,rax
    50a3:	e9 41 d7 ff ff       	jmp    27e9 <_Z16AvxPackedMathF64v.cold+0x6b9>
    50a8:	f3 0f 1e fa          	endbr64
    50ac:	48 89 c3             	mov    rbx,rax
    50af:	e9 10 d7 ff ff       	jmp    27c4 <_Z16AvxPackedMathF64v.cold+0x694>
    50b4:	66 66 2e 0f 1f 84 00 	data16 cs nop WORD PTR [rax+rax*1+0x0]
    50bb:	00 00 00 00 
    50bf:	90                   	nop

00000000000050c0 <_Z16AvxPackedMathF32v>:
    50c0:	f3 0f 1e fa          	endbr64
    50c4:	41 57                	push   r15
    50c6:	41 56                	push   r14
    50c8:	41 55                	push   r13
    50ca:	41 54                	push   r12
    50cc:	45 31 e4             	xor    r12d,r12d
    50cf:	55                   	push   rbp
    50d0:	53                   	push   rbx
    50d1:	48 81 ec b8 02 00 00 	sub    rsp,0x2b8
    50d8:	64 48 8b 04 25 28 00 	mov    rax,QWORD PTR fs:0x28
    50df:	00 00 
    50e1:	48 89 84 24 a8 02 00 	mov    QWORD PTR [rsp+0x2a8],rax
    50e8:	00 
    50e9:	48 8d 05 60 4b 00 00 	lea    rax,[rip+0x4b60]        # 9c50 <_ZTVNSt7__cxx1119basic_ostringstreamIcSt11char_traitsIcESaIcEEE@GLIBCXX_3.4.21+0x18>
    50f0:	48 8d ac 24 b0 00 00 	lea    rbp,[rsp+0xb0]
    50f7:	00 
    50f8:	4c 8d 74 24 70       	lea    r14,[rsp+0x70]
    50fd:	48 89 ea             	mov    rdx,rbp
    5100:	4c 89 f7             	mov    rdi,r14
    5103:	4c 8d ac 24 a0 01 00 	lea    r13,[rsp+0x1a0]
    510a:	00 
    510b:	48 8d 9c 24 30 01 00 	lea    rbx,[rsp+0x130]
    5112:	00 
    5113:	66 48 0f 6e c0       	movq   xmm0,rax
    5118:	48 8d 84 24 80 00 00 	lea    rax,[rsp+0x80]
    511f:	00 
    5120:	66 0f 6f d0          	movdqa xmm2,xmm0
    5124:	66 0f 6f c8          	movdqa xmm1,xmm0
    5128:	48 89 c6             	mov    rsi,rax
    512b:	48 89 44 24 58       	mov    QWORD PTR [rsp+0x58],rax
    5130:	0f 28 05 e9 2f 00 00 	movaps xmm0,XMMWORD PTR [rip+0x2fe9]        # 8120 <_IO_stdin_used+0x120>
    5137:	0f 16 15 ea 4b 00 00 	movhps xmm2,QWORD PTR [rip+0x4bea]        # 9d28 <_ZTVNSt7__cxx1115basic_stringbufIcSt11char_traitsIcESaIcEEE@GLIBCXX_3.4.21+0x80>
    513e:	0f 16 0d eb 4b 00 00 	movhps xmm1,QWORD PTR [rip+0x4beb]        # 9d30 <_ZTVSt15basic_streambufIcSt11char_traitsIcEE@GLIBCXX_3.4+0x178>
    5145:	0f 29 54 24 20       	movaps XMMWORD PTR [rsp+0x20],xmm2
    514a:	0f 29 44 24 70       	movaps XMMWORD PTR [rsp+0x70],xmm0
    514f:	0f 28 05 da 2f 00 00 	movaps xmm0,XMMWORD PTR [rip+0x2fda]        # 8130 <_IO_stdin_used+0x130>
    5156:	0f 29 4c 24 30       	movaps XMMWORD PTR [rsp+0x30],xmm1
    515b:	0f 29 84 24 80 00 00 	movaps XMMWORD PTR [rsp+0x80],xmm0
    5162:	00 
    5163:	e8 08 23 00 00       	call   7470 <AvxPackedMathF32_>
    5168:	ba 1e 00 00 00       	mov    edx,0x1e
    516d:	48 8d 35 b4 2e 00 00 	lea    rsi,[rip+0x2eb4]        # 8028 <_IO_stdin_used+0x28>
    5174:	48 8d 3d c5 4e 00 00 	lea    rdi,[rip+0x4ec5]        # a040 <_ZSt4cout@GLIBCXX_3.4>
    517b:	e8 20 cf ff ff       	call   20a0 <_ZSt16__ostream_insertIcSt11char_traitsIcEERSt13basic_ostreamIT_T0_ES6_PKS3_l@plt>
    5180:	48 8d 35 c0 2e 00 00 	lea    rsi,[rip+0x2ec0]        # 8047 <_IO_stdin_used+0x47>
    5187:	ba 09 00 00 00       	mov    edx,0x9
    518c:	48 8d 3d ad 4e 00 00 	lea    rdi,[rip+0x4ead]        # a040 <_ZSt4cout@GLIBCXX_3.4>
    5193:	e8 08 cf ff ff       	call   20a0 <_ZSt16__ostream_insertIcSt11char_traitsIcEERSt13basic_ostreamIT_T0_ES6_PKS3_l@plt>
    5198:	4c 89 ef             	mov    rdi,r13
    519b:	4c 89 6c 24 08       	mov    QWORD PTR [rsp+0x8],r13
    51a0:	e8 ab ce ff ff       	call   2050 <_ZNSt8ios_baseC2Ev@plt>
    51a5:	4c 8b 3d e4 4a 00 00 	mov    r15,QWORD PTR [rip+0x4ae4]        # 9c90 <_ZTTNSt7__cxx1119basic_ostringstreamIcSt11char_traitsIcESaIcEEE@GLIBCXX_3.4.21+0x8>
    51ac:	66 0f ef c0          	pxor   xmm0,xmm0
    51b0:	31 f6                	xor    esi,esi
    51b2:	66 44 89 a4 24 80 02 	mov    WORD PTR [rsp+0x280],r12w
    51b9:	00 00 
    51bb:	48 8d 05 e6 49 00 00 	lea    rax,[rip+0x49e6]        # 9ba8 <_ZTVSt9basic_iosIcSt11char_traitsIcEE@GLIBCXX_3.4+0x10>
    51c2:	0f 11 84 24 88 02 00 	movups XMMWORD PTR [rsp+0x288],xmm0
    51c9:	00 
    51ca:	0f 11 84 24 98 02 00 	movups XMMWORD PTR [rsp+0x298],xmm0
    51d1:	00 
    51d2:	49 8b 7f e8          	mov    rdi,QWORD PTR [r15-0x18]
    51d6:	48 89 84 24 a0 01 00 	mov    QWORD PTR [rsp+0x1a0],rax
    51dd:	00 
    51de:	48 8b 05 b3 4a 00 00 	mov    rax,QWORD PTR [rip+0x4ab3]        # 9c98 <_ZTTNSt7__cxx1119basic_ostringstreamIcSt11char_traitsIcESaIcEEE@GLIBCXX_3.4.21+0x10>
    51e5:	48 01 df             	add    rdi,rbx
    51e8:	4c 89 bc 24 30 01 00 	mov    QWORD PTR [rsp+0x130],r15
    51ef:	00 
    51f0:	48 c7 84 24 78 02 00 	mov    QWORD PTR [rsp+0x278],0x0
    51f7:	00 00 00 00 00 
    51fc:	48 89 07             	mov    QWORD PTR [rdi],rax
    51ff:	e8 bc ce ff ff       	call   20c0 <_ZNSt9basic_iosIcSt11char_traitsIcEE4initEPSt15basic_streambufIcS1_E@plt>
    5204:	48 8d 05 6d 4a 00 00 	lea    rax,[rip+0x4a6d]        # 9c78 <_ZTVNSt7__cxx1119basic_ostringstreamIcSt11char_traitsIcESaIcEEE@GLIBCXX_3.4.21+0x40>
    520b:	66 0f 6f 4c 24 30    	movdqa xmm1,XMMWORD PTR [rsp+0x30]
    5211:	66 0f ef c0          	pxor   xmm0,xmm0
    5215:	48 89 84 24 a0 01 00 	mov    QWORD PTR [rsp+0x1a0],rax
    521c:	00 
    521d:	48 8d 84 24 70 01 00 	lea    rax,[rsp+0x170]
    5224:	00 
    5225:	48 89 c7             	mov    rdi,rax
    5228:	48 89 44 24 18       	mov    QWORD PTR [rsp+0x18],rax
    522d:	0f 29 8c 24 30 01 00 	movaps XMMWORD PTR [rsp+0x130],xmm1
    5234:	00 
    5235:	0f 29 84 24 40 01 00 	movaps XMMWORD PTR [rsp+0x140],xmm0
    523c:	00 
    523d:	0f 29 84 24 50 01 00 	movaps XMMWORD PTR [rsp+0x150],xmm0
    5244:	00 
    5245:	0f 29 84 24 60 01 00 	movaps XMMWORD PTR [rsp+0x160],xmm0
    524c:	00 
    524d:	e8 be ce ff ff       	call   2110 <_ZNSt6localeC1Ev@plt>
    5252:	48 8d 05 5f 4a 00 00 	lea    rax,[rip+0x4a5f]        # 9cb8 <_ZTVNSt7__cxx1115basic_stringbufIcSt11char_traitsIcESaIcEEE@GLIBCXX_3.4.21+0x10>
    5259:	4c 89 ef             	mov    rdi,r13
    525c:	c7 84 24 78 01 00 00 	mov    DWORD PTR [rsp+0x178],0x10
    5263:	10 00 00 00 
    5267:	48 89 84 24 38 01 00 	mov    QWORD PTR [rsp+0x138],rax
    526e:	00 
    526f:	48 8d 84 24 90 01 00 	lea    rax,[rsp+0x190]
    5276:	00 
    5277:	48 89 44 24 10       	mov    QWORD PTR [rsp+0x10],rax
    527c:	48 89 84 24 80 01 00 	mov    QWORD PTR [rsp+0x180],rax
    5283:	00 
    5284:	48 8d 84 24 38 01 00 	lea    rax,[rsp+0x138]
    528b:	00 
    528c:	48 89 c6             	mov    rsi,rax
    528f:	c6 84 24 90 01 00 00 	mov    BYTE PTR [rsp+0x190],0x0
    5296:	00 
    5297:	48 c7 84 24 88 01 00 	mov    QWORD PTR [rsp+0x188],0x0
    529e:	00 00 00 00 00 
    52a3:	48 89 44 24 50       	mov    QWORD PTR [rsp+0x50],rax
    52a8:	e8 13 ce ff ff       	call   20c0 <_ZNSt9basic_iosIcSt11char_traitsIcEE4initEPSt15basic_streambufIcS1_E@plt>
    52ad:	48 8b 84 24 30 01 00 	mov    rax,QWORD PTR [rsp+0x130]
    52b4:	00 
    52b5:	45 31 ed             	xor    r13d,r13d
    52b8:	48 8b 50 e8          	mov    rdx,QWORD PTR [rax-0x18]
    52bc:	48 01 da             	add    rdx,rbx
    52bf:	8b 42 18             	mov    eax,DWORD PTR [rdx+0x18]
    52c2:	48 c7 42 08 06 00 00 	mov    QWORD PTR [rdx+0x8],0x6
    52c9:	00 
    52ca:	25 fb fe ff ff       	and    eax,0xfffffefb
    52cf:	83 c8 04             	or     eax,0x4
    52d2:	89 42 18             	mov    DWORD PTR [rdx+0x18],eax
    52d5:	4d 63 e5             	movsxd r12,r13d
    52d8:	41 83 fc 04          	cmp    r12d,0x4
    52dc:	74 52                	je     5330 <_Z16AvxPackedMathF32v+0x270>
    52de:	48 8b 84 24 30 01 00 	mov    rax,QWORD PTR [rsp+0x130]
    52e5:	00 
    52e6:	66 0f ef c0          	pxor   xmm0,xmm0
    52ea:	48 89 df             	mov    rdi,rbx
    52ed:	f3 43 0f 5a 04 a6    	cvtss2sd xmm0,DWORD PTR [r14+r12*4]
    52f3:	48 8b 40 e8          	mov    rax,QWORD PTR [rax-0x18]
    52f7:	48 c7 84 04 40 01 00 	mov    QWORD PTR [rsp+rax*1+0x140],0x10
    52fe:	00 10 00 00 00 
    5303:	e8 e8 cd ff ff       	call   20f0 <_ZNSo9_M_insertIdEERSoT_@plt>
    5308:	49 83 c4 01          	add    r12,0x1
    530c:	45 89 e5             	mov    r13d,r12d
    530f:	41 83 fc 02          	cmp    r12d,0x2
    5313:	75 c3                	jne    52d8 <_Z16AvxPackedMathF32v+0x218>
    5315:	ba 04 00 00 00       	mov    edx,0x4
    531a:	48 8d 35 30 2d 00 00 	lea    rsi,[rip+0x2d30]        # 8051 <_IO_stdin_used+0x51>
    5321:	48 89 df             	mov    rdi,rbx
    5324:	e8 77 cd ff ff       	call   20a0 <_ZSt16__ostream_insertIcSt11char_traitsIcEERSt13basic_ostreamIT_T0_ES6_PKS3_l@plt>
    5329:	eb aa                	jmp    52d5 <_Z16AvxPackedMathF32v+0x215>
    532b:	0f 1f 44 00 00       	nop    DWORD PTR [rax+rax*1+0x0]
    5330:	4c 8b 84 24 60 01 00 	mov    r8,QWORD PTR [rsp+0x160]
    5337:	00 
    5338:	48 8d 84 24 a0 00 00 	lea    rax,[rsp+0xa0]
    533f:	00 
    5340:	48 8d bc 24 90 00 00 	lea    rdi,[rsp+0x90]
    5347:	00 
    5348:	48 c7 84 24 98 00 00 	mov    QWORD PTR [rsp+0x98],0x0
    534f:	00 00 00 00 00 
    5354:	48 89 7c 24 48       	mov    QWORD PTR [rsp+0x48],rdi
    5359:	48 89 44 24 40       	mov    QWORD PTR [rsp+0x40],rax
    535e:	48 89 84 24 90 00 00 	mov    QWORD PTR [rsp+0x90],rax
    5365:	00 
    5366:	c6 84 24 a0 00 00 00 	mov    BYTE PTR [rsp+0xa0],0x0
    536d:	00 
    536e:	4d 85 c0             	test   r8,r8
    5371:	0f 84 e9 1d 00 00    	je     7160 <_Z16AvxPackedMathF32v+0x20a0>
    5377:	48 8b 84 24 50 01 00 	mov    rax,QWORD PTR [rsp+0x150]
    537e:	00 
    537f:	4c 89 c2             	mov    rdx,r8
    5382:	48 8b 8c 24 58 01 00 	mov    rcx,QWORD PTR [rsp+0x158]
    5389:	00 
    538a:	4c 39 c0             	cmp    rax,r8
    538d:	4c 0f 43 c0          	cmovae r8,rax
    5391:	48 85 c0             	test   rax,rax
    5394:	4c 0f 44 c2          	cmove  r8,rdx
    5398:	31 d2                	xor    edx,edx
    539a:	31 f6                	xor    esi,esi
    539c:	49 29 c8             	sub    r8,rcx
    539f:	e8 3c cd ff ff       	call   20e0 <_ZNSt7__cxx1112basic_stringIcSt11char_traitsIcESaIcEE10_M_replaceEmmPKcm@plt>
    53a4:	48 8d 05 cd 48 00 00 	lea    rax,[rip+0x48cd]        # 9c78 <_ZTVNSt7__cxx1119basic_ostringstreamIcSt11char_traitsIcESaIcEEE@GLIBCXX_3.4.21+0x40>
    53ab:	66 0f 6f 5c 24 20    	movdqa xmm3,XMMWORD PTR [rsp+0x20]
    53b1:	48 8b bc 24 80 01 00 	mov    rdi,QWORD PTR [rsp+0x180]
    53b8:	00 
    53b9:	48 89 84 24 a0 01 00 	mov    QWORD PTR [rsp+0x1a0],rax
    53c0:	00 
    53c1:	48 8b 44 24 10       	mov    rax,QWORD PTR [rsp+0x10]
    53c6:	0f 29 9c 24 30 01 00 	movaps XMMWORD PTR [rsp+0x130],xmm3
    53cd:	00 
    53ce:	48 39 c7             	cmp    rdi,rax
    53d1:	74 11                	je     53e4 <_Z16AvxPackedMathF32v+0x324>
    53d3:	48 8b 84 24 90 01 00 	mov    rax,QWORD PTR [rsp+0x190]
    53da:	00 
    53db:	48 8d 70 01          	lea    rsi,[rax+0x1]
    53df:	e8 9c cc ff ff       	call   2080 <_ZdlPvm@plt>
    53e4:	48 8b 7c 24 18       	mov    rdi,QWORD PTR [rsp+0x18]
    53e9:	48 8d 05 d8 47 00 00 	lea    rax,[rip+0x47d8]        # 9bc8 <_ZTVSt15basic_streambufIcSt11char_traitsIcEE@GLIBCXX_3.4+0x10>
    53f0:	48 89 84 24 38 01 00 	mov    QWORD PTR [rsp+0x138],rax
    53f7:	00 
    53f8:	e8 d3 cc ff ff       	call   20d0 <_ZNSt6localeD1Ev@plt>
    53fd:	49 8b 47 e8          	mov    rax,QWORD PTR [r15-0x18]
    5401:	48 8b 0d 90 48 00 00 	mov    rcx,QWORD PTR [rip+0x4890]        # 9c98 <_ZTTNSt7__cxx1119basic_ostringstreamIcSt11char_traitsIcESaIcEEE@GLIBCXX_3.4.21+0x10>
    5408:	4c 89 bc 24 30 01 00 	mov    QWORD PTR [rsp+0x130],r15
    540f:	00 
    5410:	48 8b 7c 24 08       	mov    rdi,QWORD PTR [rsp+0x8]
    5415:	48 89 8c 04 30 01 00 	mov    QWORD PTR [rsp+rax*1+0x130],rcx
    541c:	00 
    541d:	48 8d 05 84 47 00 00 	lea    rax,[rip+0x4784]        # 9ba8 <_ZTVSt9basic_iosIcSt11char_traitsIcEE@GLIBCXX_3.4+0x10>
    5424:	48 89 84 24 a0 01 00 	mov    QWORD PTR [rsp+0x1a0],rax
    542b:	00 
    542c:	e8 2f cc ff ff       	call   2060 <_ZNSt8ios_baseD2Ev@plt>
    5431:	48 8b 94 24 98 00 00 	mov    rdx,QWORD PTR [rsp+0x98]
    5438:	00 
    5439:	48 8b b4 24 90 00 00 	mov    rsi,QWORD PTR [rsp+0x90]
    5440:	00 
    5441:	48 8d 3d f8 4b 00 00 	lea    rdi,[rip+0x4bf8]        # a040 <_ZSt4cout@GLIBCXX_3.4>
    5448:	e8 53 cc ff ff       	call   20a0 <_ZSt16__ostream_insertIcSt11char_traitsIcEERSt13basic_ostreamIT_T0_ES6_PKS3_l@plt>
    544d:	c6 44 24 6f 0a       	mov    BYTE PTR [rsp+0x6f],0xa
    5452:	48 89 c7             	mov    rdi,rax
    5455:	48 8b 00             	mov    rax,QWORD PTR [rax]
    5458:	48 8b 40 e8          	mov    rax,QWORD PTR [rax-0x18]
    545c:	48 83 7c 07 10 00    	cmp    QWORD PTR [rdi+rax*1+0x10],0x0
    5462:	0f 85 c8 01 00 00    	jne    5630 <_Z16AvxPackedMathF32v+0x570>
    5468:	be 0a 00 00 00       	mov    esi,0xa
    546d:	e8 be cb ff ff       	call   2030 <_ZNSo3putEc@plt>
    5472:	48 8b bc 24 90 00 00 	mov    rdi,QWORD PTR [rsp+0x90]
    5479:	00 
    547a:	48 8b 44 24 40       	mov    rax,QWORD PTR [rsp+0x40]
    547f:	48 39 c7             	cmp    rdi,rax
    5482:	74 11                	je     5495 <_Z16AvxPackedMathF32v+0x3d5>
    5484:	48 8b 84 24 a0 00 00 	mov    rax,QWORD PTR [rsp+0xa0]
    548b:	00 
    548c:	48 8d 70 01          	lea    rsi,[rax+0x1]
    5490:	e8 eb cb ff ff       	call   2080 <_ZdlPvm@plt>
    5495:	48 8d 35 ba 2b 00 00 	lea    rsi,[rip+0x2bba]        # 8056 <_IO_stdin_used+0x56>
    549c:	ba 09 00 00 00       	mov    edx,0x9
    54a1:	48 8d 3d 98 4b 00 00 	lea    rdi,[rip+0x4b98]        # a040 <_ZSt4cout@GLIBCXX_3.4>
    54a8:	e8 f3 cb ff ff       	call   20a0 <_ZSt16__ostream_insertIcSt11char_traitsIcEERSt13basic_ostreamIT_T0_ES6_PKS3_l@plt>
    54ad:	4c 8b 74 24 08       	mov    r14,QWORD PTR [rsp+0x8]
    54b2:	4c 89 f7             	mov    rdi,r14
    54b5:	e8 96 cb ff ff       	call   2050 <_ZNSt8ios_baseC2Ev@plt>
    54ba:	66 0f ef c0          	pxor   xmm0,xmm0
    54be:	45 31 db             	xor    r11d,r11d
    54c1:	31 f6                	xor    esi,esi
    54c3:	48 8d 05 de 46 00 00 	lea    rax,[rip+0x46de]        # 9ba8 <_ZTVSt9basic_iosIcSt11char_traitsIcEE@GLIBCXX_3.4+0x10>
    54ca:	0f 11 84 24 88 02 00 	movups XMMWORD PTR [rsp+0x288],xmm0
    54d1:	00 
    54d2:	48 89 84 24 a0 01 00 	mov    QWORD PTR [rsp+0x1a0],rax
    54d9:	00 
    54da:	66 44 89 9c 24 80 02 	mov    WORD PTR [rsp+0x280],r11w
    54e1:	00 00 
    54e3:	0f 11 84 24 98 02 00 	movups XMMWORD PTR [rsp+0x298],xmm0
    54ea:	00 
    54eb:	49 8b 47 e8          	mov    rax,QWORD PTR [r15-0x18]
    54ef:	48 c7 84 24 78 02 00 	mov    QWORD PTR [rsp+0x278],0x0
    54f6:	00 00 00 00 00 
    54fb:	48 01 d8             	add    rax,rbx
    54fe:	4c 89 bc 24 30 01 00 	mov    QWORD PTR [rsp+0x130],r15
    5505:	00 
    5506:	48 89 c7             	mov    rdi,rax
    5509:	48 8b 05 88 47 00 00 	mov    rax,QWORD PTR [rip+0x4788]        # 9c98 <_ZTTNSt7__cxx1119basic_ostringstreamIcSt11char_traitsIcESaIcEEE@GLIBCXX_3.4.21+0x10>
    5510:	48 89 07             	mov    QWORD PTR [rdi],rax
    5513:	e8 a8 cb ff ff       	call   20c0 <_ZNSt9basic_iosIcSt11char_traitsIcEE4initEPSt15basic_streambufIcS1_E@plt>
    5518:	66 0f 6f 64 24 30    	movdqa xmm4,XMMWORD PTR [rsp+0x30]
    551e:	48 8b 7c 24 18       	mov    rdi,QWORD PTR [rsp+0x18]
    5523:	66 0f ef c0          	pxor   xmm0,xmm0
    5527:	48 8d 05 4a 47 00 00 	lea    rax,[rip+0x474a]        # 9c78 <_ZTVNSt7__cxx1119basic_ostringstreamIcSt11char_traitsIcESaIcEEE@GLIBCXX_3.4.21+0x40>
    552e:	48 89 84 24 a0 01 00 	mov    QWORD PTR [rsp+0x1a0],rax
    5535:	00 
    5536:	0f 29 a4 24 30 01 00 	movaps XMMWORD PTR [rsp+0x130],xmm4
    553d:	00 
    553e:	0f 29 84 24 40 01 00 	movaps XMMWORD PTR [rsp+0x140],xmm0
    5545:	00 
    5546:	0f 29 84 24 50 01 00 	movaps XMMWORD PTR [rsp+0x150],xmm0
    554d:	00 
    554e:	0f 29 84 24 60 01 00 	movaps XMMWORD PTR [rsp+0x160],xmm0
    5555:	00 
    5556:	e8 b5 cb ff ff       	call   2110 <_ZNSt6localeC1Ev@plt>
    555b:	48 8d 05 56 47 00 00 	lea    rax,[rip+0x4756]        # 9cb8 <_ZTVNSt7__cxx1115basic_stringbufIcSt11char_traitsIcESaIcEEE@GLIBCXX_3.4.21+0x10>
    5562:	4c 89 f7             	mov    rdi,r14
    5565:	48 8b 74 24 50       	mov    rsi,QWORD PTR [rsp+0x50]
    556a:	48 89 84 24 38 01 00 	mov    QWORD PTR [rsp+0x138],rax
    5571:	00 
    5572:	48 8b 44 24 10       	mov    rax,QWORD PTR [rsp+0x10]
    5577:	c7 84 24 78 01 00 00 	mov    DWORD PTR [rsp+0x178],0x10
    557e:	10 00 00 00 
    5582:	48 89 84 24 80 01 00 	mov    QWORD PTR [rsp+0x180],rax
    5589:	00 
    558a:	48 c7 84 24 88 01 00 	mov    QWORD PTR [rsp+0x188],0x0
    5591:	00 00 00 00 00 
    5596:	c6 84 24 90 01 00 00 	mov    BYTE PTR [rsp+0x190],0x0
    559d:	00 
    559e:	e8 1d cb ff ff       	call   20c0 <_ZNSt9basic_iosIcSt11char_traitsIcEE4initEPSt15basic_streambufIcS1_E@plt>
    55a3:	48 8b 84 24 30 01 00 	mov    rax,QWORD PTR [rsp+0x130]
    55aa:	00 
    55ab:	45 31 ed             	xor    r13d,r13d
    55ae:	4c 8d 35 9c 2a 00 00 	lea    r14,[rip+0x2a9c]        # 8051 <_IO_stdin_used+0x51>
    55b5:	48 8b 50 e8          	mov    rdx,QWORD PTR [rax-0x18]
    55b9:	48 01 da             	add    rdx,rbx
    55bc:	8b 42 18             	mov    eax,DWORD PTR [rdx+0x18]
    55bf:	48 c7 42 08 06 00 00 	mov    QWORD PTR [rdx+0x8],0x6
    55c6:	00 
    55c7:	25 fb fe ff ff       	and    eax,0xfffffefb
    55cc:	83 c8 04             	or     eax,0x4
    55cf:	89 42 18             	mov    DWORD PTR [rdx+0x18],eax
    55d2:	4d 63 e5             	movsxd r12,r13d
    55d5:	41 83 fc 04          	cmp    r12d,0x4
    55d9:	74 6d                	je     5648 <_Z16AvxPackedMathF32v+0x588>
    55db:	48 8b 84 24 30 01 00 	mov    rax,QWORD PTR [rsp+0x130]
    55e2:	00 
    55e3:	66 0f ef c0          	pxor   xmm0,xmm0
    55e7:	48 89 df             	mov    rdi,rbx
    55ea:	48 8b 40 e8          	mov    rax,QWORD PTR [rax-0x18]
    55ee:	48 c7 84 04 40 01 00 	mov    QWORD PTR [rsp+rax*1+0x140],0x10
    55f5:	00 10 00 00 00 
    55fa:	48 8b 44 24 58       	mov    rax,QWORD PTR [rsp+0x58]
    55ff:	f3 42 0f 5a 04 a0    	cvtss2sd xmm0,DWORD PTR [rax+r12*4]
    5605:	e8 e6 ca ff ff       	call   20f0 <_ZNSo9_M_insertIdEERSoT_@plt>
    560a:	49 83 c4 01          	add    r12,0x1
    560e:	45 89 e5             	mov    r13d,r12d
    5611:	41 83 fc 02          	cmp    r12d,0x2
    5615:	75 be                	jne    55d5 <_Z16AvxPackedMathF32v+0x515>
    5617:	ba 04 00 00 00       	mov    edx,0x4
    561c:	4c 89 f6             	mov    rsi,r14
    561f:	48 89 df             	mov    rdi,rbx
    5622:	e8 79 ca ff ff       	call   20a0 <_ZSt16__ostream_insertIcSt11char_traitsIcEERSt13basic_ostreamIT_T0_ES6_PKS3_l@plt>
    5627:	eb a9                	jmp    55d2 <_Z16AvxPackedMathF32v+0x512>
    5629:	0f 1f 80 00 00 00 00 	nop    DWORD PTR [rax+0x0]
    5630:	48 8d 74 24 6f       	lea    rsi,[rsp+0x6f]
    5635:	ba 01 00 00 00       	mov    edx,0x1
    563a:	e8 61 ca ff ff       	call   20a0 <_ZSt16__ostream_insertIcSt11char_traitsIcEERSt13basic_ostreamIT_T0_ES6_PKS3_l@plt>
    563f:	e9 2e fe ff ff       	jmp    5472 <_Z16AvxPackedMathF32v+0x3b2>
    5644:	0f 1f 40 00          	nop    DWORD PTR [rax+0x0]
    5648:	48 8b 44 24 40       	mov    rax,QWORD PTR [rsp+0x40]
    564d:	4c 8b 84 24 60 01 00 	mov    r8,QWORD PTR [rsp+0x160]
    5654:	00 
    5655:	48 c7 84 24 98 00 00 	mov    QWORD PTR [rsp+0x98],0x0
    565c:	00 00 00 00 00 
    5661:	c6 84 24 a0 00 00 00 	mov    BYTE PTR [rsp+0xa0],0x0
    5668:	00 
    5669:	48 89 84 24 90 00 00 	mov    QWORD PTR [rsp+0x90],rax
    5670:	00 
    5671:	4d 85 c0             	test   r8,r8
    5674:	0f 84 c6 1a 00 00    	je     7140 <_Z16AvxPackedMathF32v+0x2080>
    567a:	48 8b 84 24 50 01 00 	mov    rax,QWORD PTR [rsp+0x150]
    5681:	00 
    5682:	4c 89 c2             	mov    rdx,r8
    5685:	48 8b 7c 24 48       	mov    rdi,QWORD PTR [rsp+0x48]
    568a:	48 8b 8c 24 58 01 00 	mov    rcx,QWORD PTR [rsp+0x158]
    5691:	00 
    5692:	4c 39 c0             	cmp    rax,r8
    5695:	4c 0f 43 c0          	cmovae r8,rax
    5699:	48 85 c0             	test   rax,rax
    569c:	4c 0f 44 c2          	cmove  r8,rdx
    56a0:	31 d2                	xor    edx,edx
    56a2:	31 f6                	xor    esi,esi
    56a4:	49 29 c8             	sub    r8,rcx
    56a7:	e8 34 ca ff ff       	call   20e0 <_ZNSt7__cxx1112basic_stringIcSt11char_traitsIcESaIcEE10_M_replaceEmmPKcm@plt>
    56ac:	48 8d 05 c5 45 00 00 	lea    rax,[rip+0x45c5]        # 9c78 <_ZTVNSt7__cxx1119basic_ostringstreamIcSt11char_traitsIcESaIcEEE@GLIBCXX_3.4.21+0x40>
    56b3:	66 0f 6f 6c 24 20    	movdqa xmm5,XMMWORD PTR [rsp+0x20]
    56b9:	48 8b bc 24 80 01 00 	mov    rdi,QWORD PTR [rsp+0x180]
    56c0:	00 
    56c1:	48 89 84 24 a0 01 00 	mov    QWORD PTR [rsp+0x1a0],rax
    56c8:	00 
    56c9:	48 8b 44 24 10       	mov    rax,QWORD PTR [rsp+0x10]
    56ce:	0f 29 ac 24 30 01 00 	movaps XMMWORD PTR [rsp+0x130],xmm5
    56d5:	00 
    56d6:	48 39 c7             	cmp    rdi,rax
    56d9:	74 11                	je     56ec <_Z16AvxPackedMathF32v+0x62c>
    56db:	48 8b 84 24 90 01 00 	mov    rax,QWORD PTR [rsp+0x190]
    56e2:	00 
    56e3:	48 8d 70 01          	lea    rsi,[rax+0x1]
    56e7:	e8 94 c9 ff ff       	call   2080 <_ZdlPvm@plt>
    56ec:	48 8b 7c 24 18       	mov    rdi,QWORD PTR [rsp+0x18]
    56f1:	48 8d 05 d0 44 00 00 	lea    rax,[rip+0x44d0]        # 9bc8 <_ZTVSt15basic_streambufIcSt11char_traitsIcEE@GLIBCXX_3.4+0x10>
    56f8:	48 89 84 24 38 01 00 	mov    QWORD PTR [rsp+0x138],rax
    56ff:	00 
    5700:	e8 cb c9 ff ff       	call   20d0 <_ZNSt6localeD1Ev@plt>
    5705:	49 8b 47 e8          	mov    rax,QWORD PTR [r15-0x18]
    5709:	48 8b 0d 88 45 00 00 	mov    rcx,QWORD PTR [rip+0x4588]        # 9c98 <_ZTTNSt7__cxx1119basic_ostringstreamIcSt11char_traitsIcESaIcEEE@GLIBCXX_3.4.21+0x10>
    5710:	4c 89 bc 24 30 01 00 	mov    QWORD PTR [rsp+0x130],r15
    5717:	00 
    5718:	48 8b 7c 24 08       	mov    rdi,QWORD PTR [rsp+0x8]
    571d:	48 89 8c 04 30 01 00 	mov    QWORD PTR [rsp+rax*1+0x130],rcx
    5724:	00 
    5725:	48 8d 05 7c 44 00 00 	lea    rax,[rip+0x447c]        # 9ba8 <_ZTVSt9basic_iosIcSt11char_traitsIcEE@GLIBCXX_3.4+0x10>
    572c:	48 89 84 24 a0 01 00 	mov    QWORD PTR [rsp+0x1a0],rax
    5733:	00 
    5734:	e8 27 c9 ff ff       	call   2060 <_ZNSt8ios_baseD2Ev@plt>
    5739:	48 8b 94 24 98 00 00 	mov    rdx,QWORD PTR [rsp+0x98]
    5740:	00 
    5741:	48 8b b4 24 90 00 00 	mov    rsi,QWORD PTR [rsp+0x90]
    5748:	00 
    5749:	48 8d 3d f0 48 00 00 	lea    rdi,[rip+0x48f0]        # a040 <_ZSt4cout@GLIBCXX_3.4>
    5750:	e8 4b c9 ff ff       	call   20a0 <_ZSt16__ostream_insertIcSt11char_traitsIcEERSt13basic_ostreamIT_T0_ES6_PKS3_l@plt>
    5755:	c6 44 24 6f 0a       	mov    BYTE PTR [rsp+0x6f],0xa
    575a:	48 89 c7             	mov    rdi,rax
    575d:	48 8b 00             	mov    rax,QWORD PTR [rax]
    5760:	48 8b 40 e8          	mov    rax,QWORD PTR [rax-0x18]
    5764:	48 83 7c 07 10 00    	cmp    QWORD PTR [rdi+rax*1+0x10],0x0
    576a:	0f 84 50 18 00 00    	je     6fc0 <_Z16AvxPackedMathF32v+0x1f00>
    5770:	48 8d 74 24 6f       	lea    rsi,[rsp+0x6f]
    5775:	ba 01 00 00 00       	mov    edx,0x1
    577a:	e8 21 c9 ff ff       	call   20a0 <_ZSt16__ostream_insertIcSt11char_traitsIcEERSt13basic_ostreamIT_T0_ES6_PKS3_l@plt>
    577f:	48 8b bc 24 90 00 00 	mov    rdi,QWORD PTR [rsp+0x90]
    5786:	00 
    5787:	48 8b 44 24 40       	mov    rax,QWORD PTR [rsp+0x40]
    578c:	48 39 c7             	cmp    rdi,rax
    578f:	74 11                	je     57a2 <_Z16AvxPackedMathF32v+0x6e2>
    5791:	48 8b 84 24 a0 00 00 	mov    rax,QWORD PTR [rsp+0xa0]
    5798:	00 
    5799:	48 8d 70 01          	lea    rsi,[rax+0x1]
    579d:	e8 de c8 ff ff       	call   2080 <_ZdlPvm@plt>
    57a2:	48 8b 05 97 48 00 00 	mov    rax,QWORD PTR [rip+0x4897]        # a040 <_ZSt4cout@GLIBCXX_3.4>
    57a9:	c6 44 24 6f 0a       	mov    BYTE PTR [rsp+0x6f],0xa
    57ae:	48 8d 0d 8b 48 00 00 	lea    rcx,[rip+0x488b]        # a040 <_ZSt4cout@GLIBCXX_3.4>
    57b5:	48 8b 40 e8          	mov    rax,QWORD PTR [rax-0x18]
    57b9:	48 83 7c 01 10 00    	cmp    QWORD PTR [rcx+rax*1+0x10],0x0
    57bf:	0f 84 db 17 00 00    	je     6fa0 <_Z16AvxPackedMathF32v+0x1ee0>
    57c5:	48 8d 74 24 6f       	lea    rsi,[rsp+0x6f]
    57ca:	ba 01 00 00 00       	mov    edx,0x1
    57cf:	48 89 cf             	mov    rdi,rcx
    57d2:	e8 c9 c8 ff ff       	call   20a0 <_ZSt16__ostream_insertIcSt11char_traitsIcEERSt13basic_ostreamIT_T0_ES6_PKS3_l@plt>
    57d7:	48 8d 35 d2 28 00 00 	lea    rsi,[rip+0x28d2]        # 80b0 <_IO_stdin_used+0xb0>
    57de:	ba 09 00 00 00       	mov    edx,0x9
    57e3:	48 8d 3d 56 48 00 00 	lea    rdi,[rip+0x4856]        # a040 <_ZSt4cout@GLIBCXX_3.4>
    57ea:	e8 b1 c8 ff ff       	call   20a0 <_ZSt16__ostream_insertIcSt11char_traitsIcEERSt13basic_ostreamIT_T0_ES6_PKS3_l@plt>
    57ef:	4c 8b 74 24 08       	mov    r14,QWORD PTR [rsp+0x8]
    57f4:	4c 89 f7             	mov    rdi,r14
    57f7:	e8 54 c8 ff ff       	call   2050 <_ZNSt8ios_baseC2Ev@plt>
    57fc:	66 0f ef c0          	pxor   xmm0,xmm0
    5800:	45 31 d2             	xor    r10d,r10d
    5803:	31 f6                	xor    esi,esi
    5805:	48 8d 05 9c 43 00 00 	lea    rax,[rip+0x439c]        # 9ba8 <_ZTVSt9basic_iosIcSt11char_traitsIcEE@GLIBCXX_3.4+0x10>
    580c:	0f 11 84 24 88 02 00 	movups XMMWORD PTR [rsp+0x288],xmm0
    5813:	00 
    5814:	48 89 84 24 a0 01 00 	mov    QWORD PTR [rsp+0x1a0],rax
    581b:	00 
    581c:	66 44 89 94 24 80 02 	mov    WORD PTR [rsp+0x280],r10w
    5823:	00 00 
    5825:	0f 11 84 24 98 02 00 	movups XMMWORD PTR [rsp+0x298],xmm0
    582c:	00 
    582d:	49 8b 47 e8          	mov    rax,QWORD PTR [r15-0x18]
    5831:	48 c7 84 24 78 02 00 	mov    QWORD PTR [rsp+0x278],0x0
    5838:	00 00 00 00 00 
    583d:	48 01 d8             	add    rax,rbx
    5840:	4c 89 bc 24 30 01 00 	mov    QWORD PTR [rsp+0x130],r15
    5847:	00 
    5848:	48 89 c7             	mov    rdi,rax
    584b:	48 8b 05 46 44 00 00 	mov    rax,QWORD PTR [rip+0x4446]        # 9c98 <_ZTTNSt7__cxx1119basic_ostringstreamIcSt11char_traitsIcESaIcEEE@GLIBCXX_3.4.21+0x10>
    5852:	48 89 07             	mov    QWORD PTR [rdi],rax
    5855:	e8 66 c8 ff ff       	call   20c0 <_ZNSt9basic_iosIcSt11char_traitsIcEE4initEPSt15basic_streambufIcS1_E@plt>
    585a:	66 0f 6f 74 24 30    	movdqa xmm6,XMMWORD PTR [rsp+0x30]
    5860:	48 8b 7c 24 18       	mov    rdi,QWORD PTR [rsp+0x18]
    5865:	66 0f ef c0          	pxor   xmm0,xmm0
    5869:	48 8d 05 08 44 00 00 	lea    rax,[rip+0x4408]        # 9c78 <_ZTVNSt7__cxx1119basic_ostringstreamIcSt11char_traitsIcESaIcEEE@GLIBCXX_3.4.21+0x40>
    5870:	48 89 84 24 a0 01 00 	mov    QWORD PTR [rsp+0x1a0],rax
    5877:	00 
    5878:	0f 29 b4 24 30 01 00 	movaps XMMWORD PTR [rsp+0x130],xmm6
    587f:	00 
    5880:	0f 29 84 24 40 01 00 	movaps XMMWORD PTR [rsp+0x140],xmm0
    5887:	00 
    5888:	0f 29 84 24 50 01 00 	movaps XMMWORD PTR [rsp+0x150],xmm0
    588f:	00 
    5890:	0f 29 84 24 60 01 00 	movaps XMMWORD PTR [rsp+0x160],xmm0
    5897:	00 
    5898:	e8 73 c8 ff ff       	call   2110 <_ZNSt6localeC1Ev@plt>
    589d:	48 8d 05 14 44 00 00 	lea    rax,[rip+0x4414]        # 9cb8 <_ZTVNSt7__cxx1115basic_stringbufIcSt11char_traitsIcESaIcEEE@GLIBCXX_3.4.21+0x10>
    58a4:	4c 89 f7             	mov    rdi,r14
    58a7:	48 8b 74 24 50       	mov    rsi,QWORD PTR [rsp+0x50]
    58ac:	48 89 84 24 38 01 00 	mov    QWORD PTR [rsp+0x138],rax
    58b3:	00 
    58b4:	48 8b 44 24 10       	mov    rax,QWORD PTR [rsp+0x10]
    58b9:	c7 84 24 78 01 00 00 	mov    DWORD PTR [rsp+0x178],0x10
    58c0:	10 00 00 00 
    58c4:	48 89 84 24 80 01 00 	mov    QWORD PTR [rsp+0x180],rax
    58cb:	00 
    58cc:	48 c7 84 24 88 01 00 	mov    QWORD PTR [rsp+0x188],0x0
    58d3:	00 00 00 00 00 
    58d8:	c6 84 24 90 01 00 00 	mov    BYTE PTR [rsp+0x190],0x0
    58df:	00 
    58e0:	e8 db c7 ff ff       	call   20c0 <_ZNSt9basic_iosIcSt11char_traitsIcEE4initEPSt15basic_streambufIcS1_E@plt>
    58e5:	48 8b 84 24 30 01 00 	mov    rax,QWORD PTR [rsp+0x130]
    58ec:	00 
    58ed:	45 31 ed             	xor    r13d,r13d
    58f0:	4c 8d 35 5a 27 00 00 	lea    r14,[rip+0x275a]        # 8051 <_IO_stdin_used+0x51>
    58f7:	48 8b 50 e8          	mov    rdx,QWORD PTR [rax-0x18]
    58fb:	48 01 da             	add    rdx,rbx
    58fe:	8b 42 18             	mov    eax,DWORD PTR [rdx+0x18]
    5901:	48 c7 42 08 06 00 00 	mov    QWORD PTR [rdx+0x8],0x6
    5908:	00 
    5909:	25 fb fe ff ff       	and    eax,0xfffffefb
    590e:	83 c8 04             	or     eax,0x4
    5911:	89 42 18             	mov    DWORD PTR [rdx+0x18],eax
    5914:	4d 63 e5             	movsxd r12,r13d
    5917:	41 83 fc 04          	cmp    r12d,0x4
    591b:	74 53                	je     5970 <_Z16AvxPackedMathF32v+0x8b0>
    591d:	48 8b 84 24 30 01 00 	mov    rax,QWORD PTR [rsp+0x130]
    5924:	00 
    5925:	66 0f ef c0          	pxor   xmm0,xmm0
    5929:	48 89 df             	mov    rdi,rbx
    592c:	f3 42 0f 5a 44 a5 00 	cvtss2sd xmm0,DWORD PTR [rbp+r12*4+0x0]
    5933:	48 8b 40 e8          	mov    rax,QWORD PTR [rax-0x18]
    5937:	48 c7 84 04 40 01 00 	mov    QWORD PTR [rsp+rax*1+0x140],0x10
    593e:	00 10 00 00 00 
    5943:	e8 a8 c7 ff ff       	call   20f0 <_ZNSo9_M_insertIdEERSoT_@plt>
    5948:	49 83 c4 01          	add    r12,0x1
    594c:	45 89 e5             	mov    r13d,r12d
    594f:	41 83 fc 02          	cmp    r12d,0x2
    5953:	75 c2                	jne    5917 <_Z16AvxPackedMathF32v+0x857>
    5955:	ba 04 00 00 00       	mov    edx,0x4
    595a:	4c 89 f6             	mov    rsi,r14
    595d:	48 89 df             	mov    rdi,rbx
    5960:	e8 3b c7 ff ff       	call   20a0 <_ZSt16__ostream_insertIcSt11char_traitsIcEERSt13basic_ostreamIT_T0_ES6_PKS3_l@plt>
    5965:	eb ad                	jmp    5914 <_Z16AvxPackedMathF32v+0x854>
    5967:	66 0f 1f 84 00 00 00 	nop    WORD PTR [rax+rax*1+0x0]
    596e:	00 00 
    5970:	48 8b 44 24 40       	mov    rax,QWORD PTR [rsp+0x40]
    5975:	4c 8b 84 24 60 01 00 	mov    r8,QWORD PTR [rsp+0x160]
    597c:	00 
    597d:	48 c7 84 24 98 00 00 	mov    QWORD PTR [rsp+0x98],0x0
    5984:	00 00 00 00 00 
    5989:	c6 84 24 a0 00 00 00 	mov    BYTE PTR [rsp+0xa0],0x0
    5990:	00 
    5991:	48 89 84 24 90 00 00 	mov    QWORD PTR [rsp+0x90],rax
    5998:	00 
    5999:	4d 85 c0             	test   r8,r8
    599c:	0f 84 7e 17 00 00    	je     7120 <_Z16AvxPackedMathF32v+0x2060>
    59a2:	48 8b 84 24 50 01 00 	mov    rax,QWORD PTR [rsp+0x150]
    59a9:	00 
    59aa:	4c 89 c2             	mov    rdx,r8
    59ad:	48 8b 7c 24 48       	mov    rdi,QWORD PTR [rsp+0x48]
    59b2:	48 8b 8c 24 58 01 00 	mov    rcx,QWORD PTR [rsp+0x158]
    59b9:	00 
    59ba:	4c 39 c0             	cmp    rax,r8
    59bd:	4c 0f 43 c0          	cmovae r8,rax
    59c1:	48 85 c0             	test   rax,rax
    59c4:	4c 0f 44 c2          	cmove  r8,rdx
    59c8:	31 d2                	xor    edx,edx
    59ca:	31 f6                	xor    esi,esi
    59cc:	49 29 c8             	sub    r8,rcx
    59cf:	e8 0c c7 ff ff       	call   20e0 <_ZNSt7__cxx1112basic_stringIcSt11char_traitsIcESaIcEE10_M_replaceEmmPKcm@plt>
    59d4:	48 8d 05 9d 42 00 00 	lea    rax,[rip+0x429d]        # 9c78 <_ZTVNSt7__cxx1119basic_ostringstreamIcSt11char_traitsIcESaIcEEE@GLIBCXX_3.4.21+0x40>
    59db:	66 0f 6f 7c 24 20    	movdqa xmm7,XMMWORD PTR [rsp+0x20]
    59e1:	48 8b bc 24 80 01 00 	mov    rdi,QWORD PTR [rsp+0x180]
    59e8:	00 
    59e9:	48 89 84 24 a0 01 00 	mov    QWORD PTR [rsp+0x1a0],rax
    59f0:	00 
    59f1:	48 8b 44 24 10       	mov    rax,QWORD PTR [rsp+0x10]
    59f6:	0f 29 bc 24 30 01 00 	movaps XMMWORD PTR [rsp+0x130],xmm7
    59fd:	00 
    59fe:	48 39 c7             	cmp    rdi,rax
    5a01:	74 11                	je     5a14 <_Z16AvxPackedMathF32v+0x954>
    5a03:	48 8b 84 24 90 01 00 	mov    rax,QWORD PTR [rsp+0x190]
    5a0a:	00 
    5a0b:	48 8d 70 01          	lea    rsi,[rax+0x1]
    5a0f:	e8 6c c6 ff ff       	call   2080 <_ZdlPvm@plt>
    5a14:	48 8b 7c 24 18       	mov    rdi,QWORD PTR [rsp+0x18]
    5a19:	48 8d 05 a8 41 00 00 	lea    rax,[rip+0x41a8]        # 9bc8 <_ZTVSt15basic_streambufIcSt11char_traitsIcEE@GLIBCXX_3.4+0x10>
    5a20:	48 89 84 24 38 01 00 	mov    QWORD PTR [rsp+0x138],rax
    5a27:	00 
    5a28:	e8 a3 c6 ff ff       	call   20d0 <_ZNSt6localeD1Ev@plt>
    5a2d:	49 8b 47 e8          	mov    rax,QWORD PTR [r15-0x18]
    5a31:	48 8b 0d 60 42 00 00 	mov    rcx,QWORD PTR [rip+0x4260]        # 9c98 <_ZTTNSt7__cxx1119basic_ostringstreamIcSt11char_traitsIcESaIcEEE@GLIBCXX_3.4.21+0x10>
    5a38:	4c 89 bc 24 30 01 00 	mov    QWORD PTR [rsp+0x130],r15
    5a3f:	00 
    5a40:	48 8b 7c 24 08       	mov    rdi,QWORD PTR [rsp+0x8]
    5a45:	48 89 8c 04 30 01 00 	mov    QWORD PTR [rsp+rax*1+0x130],rcx
    5a4c:	00 
    5a4d:	48 8d 05 54 41 00 00 	lea    rax,[rip+0x4154]        # 9ba8 <_ZTVSt9basic_iosIcSt11char_traitsIcEE@GLIBCXX_3.4+0x10>
    5a54:	48 89 84 24 a0 01 00 	mov    QWORD PTR [rsp+0x1a0],rax
    5a5b:	00 
    5a5c:	e8 ff c5 ff ff       	call   2060 <_ZNSt8ios_baseD2Ev@plt>
    5a61:	48 8b 94 24 98 00 00 	mov    rdx,QWORD PTR [rsp+0x98]
    5a68:	00 
    5a69:	48 8b b4 24 90 00 00 	mov    rsi,QWORD PTR [rsp+0x90]
    5a70:	00 
    5a71:	48 8d 3d c8 45 00 00 	lea    rdi,[rip+0x45c8]        # a040 <_ZSt4cout@GLIBCXX_3.4>
    5a78:	e8 23 c6 ff ff       	call   20a0 <_ZSt16__ostream_insertIcSt11char_traitsIcEERSt13basic_ostreamIT_T0_ES6_PKS3_l@plt>
    5a7d:	c6 44 24 6f 0a       	mov    BYTE PTR [rsp+0x6f],0xa
    5a82:	48 89 c7             	mov    rdi,rax
    5a85:	48 8b 00             	mov    rax,QWORD PTR [rax]
    5a88:	48 8b 40 e8          	mov    rax,QWORD PTR [rax-0x18]
    5a8c:	48 83 7c 07 10 00    	cmp    QWORD PTR [rdi+rax*1+0x10],0x0
    5a92:	0f 84 f0 14 00 00    	je     6f88 <_Z16AvxPackedMathF32v+0x1ec8>
    5a98:	48 8d 74 24 6f       	lea    rsi,[rsp+0x6f]
    5a9d:	ba 01 00 00 00       	mov    edx,0x1
    5aa2:	e8 f9 c5 ff ff       	call   20a0 <_ZSt16__ostream_insertIcSt11char_traitsIcEERSt13basic_ostreamIT_T0_ES6_PKS3_l@plt>
    5aa7:	48 8b bc 24 90 00 00 	mov    rdi,QWORD PTR [rsp+0x90]
    5aae:	00 
    5aaf:	48 8b 44 24 40       	mov    rax,QWORD PTR [rsp+0x40]
    5ab4:	48 39 c7             	cmp    rdi,rax
    5ab7:	74 11                	je     5aca <_Z16AvxPackedMathF32v+0xa0a>
    5ab9:	48 8b 84 24 a0 00 00 	mov    rax,QWORD PTR [rsp+0xa0]
    5ac0:	00 
    5ac1:	48 8d 70 01          	lea    rsi,[rax+0x1]
    5ac5:	e8 b6 c5 ff ff       	call   2080 <_ZdlPvm@plt>
    5aca:	48 8d 35 e9 25 00 00 	lea    rsi,[rip+0x25e9]        # 80ba <_IO_stdin_used+0xba>
    5ad1:	ba 09 00 00 00       	mov    edx,0x9
    5ad6:	48 8d 3d 63 45 00 00 	lea    rdi,[rip+0x4563]        # a040 <_ZSt4cout@GLIBCXX_3.4>
    5add:	e8 be c5 ff ff       	call   20a0 <_ZSt16__ostream_insertIcSt11char_traitsIcEERSt13basic_ostreamIT_T0_ES6_PKS3_l@plt>
    5ae2:	4c 8b 74 24 08       	mov    r14,QWORD PTR [rsp+0x8]
    5ae7:	4c 89 f7             	mov    rdi,r14
    5aea:	e8 61 c5 ff ff       	call   2050 <_ZNSt8ios_baseC2Ev@plt>
    5aef:	66 0f ef c0          	pxor   xmm0,xmm0
    5af3:	45 31 c9             	xor    r9d,r9d
    5af6:	31 f6                	xor    esi,esi
    5af8:	48 8d 05 a9 40 00 00 	lea    rax,[rip+0x40a9]        # 9ba8 <_ZTVSt9basic_iosIcSt11char_traitsIcEE@GLIBCXX_3.4+0x10>
    5aff:	0f 11 84 24 88 02 00 	movups XMMWORD PTR [rsp+0x288],xmm0
    5b06:	00 
    5b07:	48 89 84 24 a0 01 00 	mov    QWORD PTR [rsp+0x1a0],rax
    5b0e:	00 
    5b0f:	66 44 89 8c 24 80 02 	mov    WORD PTR [rsp+0x280],r9w
    5b16:	00 00 
    5b18:	0f 11 84 24 98 02 00 	movups XMMWORD PTR [rsp+0x298],xmm0
    5b1f:	00 
    5b20:	49 8b 47 e8          	mov    rax,QWORD PTR [r15-0x18]
    5b24:	48 c7 84 24 78 02 00 	mov    QWORD PTR [rsp+0x278],0x0
    5b2b:	00 00 00 00 00 
    5b30:	48 01 d8             	add    rax,rbx
    5b33:	4c 89 bc 24 30 01 00 	mov    QWORD PTR [rsp+0x130],r15
    5b3a:	00 
    5b3b:	48 89 c7             	mov    rdi,rax
    5b3e:	48 8b 05 53 41 00 00 	mov    rax,QWORD PTR [rip+0x4153]        # 9c98 <_ZTTNSt7__cxx1119basic_ostringstreamIcSt11char_traitsIcESaIcEEE@GLIBCXX_3.4.21+0x10>
    5b45:	48 89 07             	mov    QWORD PTR [rdi],rax
    5b48:	e8 73 c5 ff ff       	call   20c0 <_ZNSt9basic_iosIcSt11char_traitsIcEE4initEPSt15basic_streambufIcS1_E@plt>
    5b4d:	66 0f 6f 74 24 30    	movdqa xmm6,XMMWORD PTR [rsp+0x30]
    5b53:	48 8b 7c 24 18       	mov    rdi,QWORD PTR [rsp+0x18]
    5b58:	66 0f ef c0          	pxor   xmm0,xmm0
    5b5c:	48 8d 05 15 41 00 00 	lea    rax,[rip+0x4115]        # 9c78 <_ZTVNSt7__cxx1119basic_ostringstreamIcSt11char_traitsIcESaIcEEE@GLIBCXX_3.4.21+0x40>
    5b63:	48 89 84 24 a0 01 00 	mov    QWORD PTR [rsp+0x1a0],rax
    5b6a:	00 
    5b6b:	0f 29 b4 24 30 01 00 	movaps XMMWORD PTR [rsp+0x130],xmm6
    5b72:	00 
    5b73:	0f 29 84 24 40 01 00 	movaps XMMWORD PTR [rsp+0x140],xmm0
    5b7a:	00 
    5b7b:	0f 29 84 24 50 01 00 	movaps XMMWORD PTR [rsp+0x150],xmm0
    5b82:	00 
    5b83:	0f 29 84 24 60 01 00 	movaps XMMWORD PTR [rsp+0x160],xmm0
    5b8a:	00 
    5b8b:	e8 80 c5 ff ff       	call   2110 <_ZNSt6localeC1Ev@plt>
    5b90:	48 8d 05 21 41 00 00 	lea    rax,[rip+0x4121]        # 9cb8 <_ZTVNSt7__cxx1115basic_stringbufIcSt11char_traitsIcESaIcEEE@GLIBCXX_3.4.21+0x10>
    5b97:	4c 89 f7             	mov    rdi,r14
    5b9a:	48 8b 74 24 50       	mov    rsi,QWORD PTR [rsp+0x50]
    5b9f:	48 89 84 24 38 01 00 	mov    QWORD PTR [rsp+0x138],rax
    5ba6:	00 
    5ba7:	48 8b 44 24 10       	mov    rax,QWORD PTR [rsp+0x10]
    5bac:	c7 84 24 78 01 00 00 	mov    DWORD PTR [rsp+0x178],0x10
    5bb3:	10 00 00 00 
    5bb7:	48 89 84 24 80 01 00 	mov    QWORD PTR [rsp+0x180],rax
    5bbe:	00 
    5bbf:	48 c7 84 24 88 01 00 	mov    QWORD PTR [rsp+0x188],0x0
    5bc6:	00 00 00 00 00 
    5bcb:	c6 84 24 90 01 00 00 	mov    BYTE PTR [rsp+0x190],0x0
    5bd2:	00 
    5bd3:	e8 e8 c4 ff ff       	call   20c0 <_ZNSt9basic_iosIcSt11char_traitsIcEE4initEPSt15basic_streambufIcS1_E@plt>
    5bd8:	48 8b 84 24 30 01 00 	mov    rax,QWORD PTR [rsp+0x130]
    5bdf:	00 
    5be0:	45 31 ed             	xor    r13d,r13d
    5be3:	4c 8d 35 67 24 00 00 	lea    r14,[rip+0x2467]        # 8051 <_IO_stdin_used+0x51>
    5bea:	48 8b 50 e8          	mov    rdx,QWORD PTR [rax-0x18]
    5bee:	48 01 da             	add    rdx,rbx
    5bf1:	8b 42 18             	mov    eax,DWORD PTR [rdx+0x18]
    5bf4:	48 c7 42 08 06 00 00 	mov    QWORD PTR [rdx+0x8],0x6
    5bfb:	00 
    5bfc:	25 fb fe ff ff       	and    eax,0xfffffefb
    5c01:	83 c8 04             	or     eax,0x4
    5c04:	89 42 18             	mov    DWORD PTR [rdx+0x18],eax
    5c07:	4d 63 e5             	movsxd r12,r13d
    5c0a:	41 83 fc 04          	cmp    r12d,0x4
    5c0e:	74 50                	je     5c60 <_Z16AvxPackedMathF32v+0xba0>
    5c10:	48 8b 84 24 30 01 00 	mov    rax,QWORD PTR [rsp+0x130]
    5c17:	00 
    5c18:	66 0f ef c0          	pxor   xmm0,xmm0
    5c1c:	48 89 df             	mov    rdi,rbx
    5c1f:	f3 42 0f 5a 44 a5 10 	cvtss2sd xmm0,DWORD PTR [rbp+r12*4+0x10]
    5c26:	48 8b 40 e8          	mov    rax,QWORD PTR [rax-0x18]
    5c2a:	48 c7 84 04 40 01 00 	mov    QWORD PTR [rsp+rax*1+0x140],0x10
    5c31:	00 10 00 00 00 
    5c36:	e8 b5 c4 ff ff       	call   20f0 <_ZNSo9_M_insertIdEERSoT_@plt>
    5c3b:	49 83 c4 01          	add    r12,0x1
    5c3f:	45 89 e5             	mov    r13d,r12d
    5c42:	41 83 fc 02          	cmp    r12d,0x2
    5c46:	75 c2                	jne    5c0a <_Z16AvxPackedMathF32v+0xb4a>
    5c48:	ba 04 00 00 00       	mov    edx,0x4
    5c4d:	4c 89 f6             	mov    rsi,r14
    5c50:	48 89 df             	mov    rdi,rbx
    5c53:	e8 48 c4 ff ff       	call   20a0 <_ZSt16__ostream_insertIcSt11char_traitsIcEERSt13basic_ostreamIT_T0_ES6_PKS3_l@plt>
    5c58:	eb ad                	jmp    5c07 <_Z16AvxPackedMathF32v+0xb47>
    5c5a:	66 0f 1f 44 00 00    	nop    WORD PTR [rax+rax*1+0x0]
    5c60:	48 8b 44 24 40       	mov    rax,QWORD PTR [rsp+0x40]
    5c65:	4c 8b 84 24 60 01 00 	mov    r8,QWORD PTR [rsp+0x160]
    5c6c:	00 
    5c6d:	48 c7 84 24 98 00 00 	mov    QWORD PTR [rsp+0x98],0x0
    5c74:	00 00 00 00 00 
    5c79:	c6 84 24 a0 00 00 00 	mov    BYTE PTR [rsp+0xa0],0x0
    5c80:	00 
    5c81:	48 89 84 24 90 00 00 	mov    QWORD PTR [rsp+0x90],rax
    5c88:	00 
    5c89:	4d 85 c0             	test   r8,r8
    5c8c:	0f 84 ae 13 00 00    	je     7040 <_Z16AvxPackedMathF32v+0x1f80>
    5c92:	48 8b 84 24 50 01 00 	mov    rax,QWORD PTR [rsp+0x150]
    5c99:	00 
    5c9a:	4c 89 c2             	mov    rdx,r8
    5c9d:	48 8b 7c 24 48       	mov    rdi,QWORD PTR [rsp+0x48]
    5ca2:	48 8b 8c 24 58 01 00 	mov    rcx,QWORD PTR [rsp+0x158]
    5ca9:	00 
    5caa:	4c 39 c0             	cmp    rax,r8
    5cad:	4c 0f 43 c0          	cmovae r8,rax
    5cb1:	48 85 c0             	test   rax,rax
    5cb4:	4c 0f 44 c2          	cmove  r8,rdx
    5cb8:	31 d2                	xor    edx,edx
    5cba:	31 f6                	xor    esi,esi
    5cbc:	49 29 c8             	sub    r8,rcx
    5cbf:	e8 1c c4 ff ff       	call   20e0 <_ZNSt7__cxx1112basic_stringIcSt11char_traitsIcESaIcEE10_M_replaceEmmPKcm@plt>
    5cc4:	48 8d 05 ad 3f 00 00 	lea    rax,[rip+0x3fad]        # 9c78 <_ZTVNSt7__cxx1119basic_ostringstreamIcSt11char_traitsIcESaIcEEE@GLIBCXX_3.4.21+0x40>
    5ccb:	66 0f 6f 7c 24 20    	movdqa xmm7,XMMWORD PTR [rsp+0x20]
    5cd1:	48 8b bc 24 80 01 00 	mov    rdi,QWORD PTR [rsp+0x180]
    5cd8:	00 
    5cd9:	48 89 84 24 a0 01 00 	mov    QWORD PTR [rsp+0x1a0],rax
    5ce0:	00 
    5ce1:	48 8b 44 24 10       	mov    rax,QWORD PTR [rsp+0x10]
    5ce6:	0f 29 bc 24 30 01 00 	movaps XMMWORD PTR [rsp+0x130],xmm7
    5ced:	00 
    5cee:	48 39 c7             	cmp    rdi,rax
    5cf1:	74 11                	je     5d04 <_Z16AvxPackedMathF32v+0xc44>
    5cf3:	48 8b 84 24 90 01 00 	mov    rax,QWORD PTR [rsp+0x190]
    5cfa:	00 
    5cfb:	48 8d 70 01          	lea    rsi,[rax+0x1]
    5cff:	e8 7c c3 ff ff       	call   2080 <_ZdlPvm@plt>
    5d04:	48 8b 7c 24 18       	mov    rdi,QWORD PTR [rsp+0x18]
    5d09:	48 8d 05 b8 3e 00 00 	lea    rax,[rip+0x3eb8]        # 9bc8 <_ZTVSt15basic_streambufIcSt11char_traitsIcEE@GLIBCXX_3.4+0x10>
    5d10:	48 89 84 24 38 01 00 	mov    QWORD PTR [rsp+0x138],rax
    5d17:	00 
    5d18:	e8 b3 c3 ff ff       	call   20d0 <_ZNSt6localeD1Ev@plt>
    5d1d:	49 8b 47 e8          	mov    rax,QWORD PTR [r15-0x18]
    5d21:	48 8b 0d 70 3f 00 00 	mov    rcx,QWORD PTR [rip+0x3f70]        # 9c98 <_ZTTNSt7__cxx1119basic_ostringstreamIcSt11char_traitsIcESaIcEEE@GLIBCXX_3.4.21+0x10>
    5d28:	4c 89 bc 24 30 01 00 	mov    QWORD PTR [rsp+0x130],r15
    5d2f:	00 
    5d30:	48 8b 7c 24 08       	mov    rdi,QWORD PTR [rsp+0x8]
    5d35:	48 89 8c 04 30 01 00 	mov    QWORD PTR [rsp+rax*1+0x130],rcx
    5d3c:	00 
    5d3d:	48 8d 05 64 3e 00 00 	lea    rax,[rip+0x3e64]        # 9ba8 <_ZTVSt9basic_iosIcSt11char_traitsIcEE@GLIBCXX_3.4+0x10>
    5d44:	48 89 84 24 a0 01 00 	mov    QWORD PTR [rsp+0x1a0],rax
    5d4b:	00 
    5d4c:	e8 0f c3 ff ff       	call   2060 <_ZNSt8ios_baseD2Ev@plt>
    5d51:	48 8b 94 24 98 00 00 	mov    rdx,QWORD PTR [rsp+0x98]
    5d58:	00 
    5d59:	48 8b b4 24 90 00 00 	mov    rsi,QWORD PTR [rsp+0x90]
    5d60:	00 
    5d61:	48 8d 3d d8 42 00 00 	lea    rdi,[rip+0x42d8]        # a040 <_ZSt4cout@GLIBCXX_3.4>
    5d68:	e8 33 c3 ff ff       	call   20a0 <_ZSt16__ostream_insertIcSt11char_traitsIcEERSt13basic_ostreamIT_T0_ES6_PKS3_l@plt>
    5d6d:	c6 44 24 6f 0a       	mov    BYTE PTR [rsp+0x6f],0xa
    5d72:	48 89 c7             	mov    rdi,rax
    5d75:	48 8b 00             	mov    rax,QWORD PTR [rax]
    5d78:	48 8b 40 e8          	mov    rax,QWORD PTR [rax-0x18]
    5d7c:	48 83 7c 07 10 00    	cmp    QWORD PTR [rdi+rax*1+0x10],0x0
    5d82:	0f 84 58 12 00 00    	je     6fe0 <_Z16AvxPackedMathF32v+0x1f20>
    5d88:	48 8d 74 24 6f       	lea    rsi,[rsp+0x6f]
    5d8d:	ba 01 00 00 00       	mov    edx,0x1
    5d92:	e8 09 c3 ff ff       	call   20a0 <_ZSt16__ostream_insertIcSt11char_traitsIcEERSt13basic_ostreamIT_T0_ES6_PKS3_l@plt>
    5d97:	48 8b bc 24 90 00 00 	mov    rdi,QWORD PTR [rsp+0x90]
    5d9e:	00 
    5d9f:	48 8b 44 24 40       	mov    rax,QWORD PTR [rsp+0x40]
    5da4:	48 39 c7             	cmp    rdi,rax
    5da7:	74 11                	je     5dba <_Z16AvxPackedMathF32v+0xcfa>
    5da9:	48 8b 84 24 a0 00 00 	mov    rax,QWORD PTR [rsp+0xa0]
    5db0:	00 
    5db1:	48 8d 70 01          	lea    rsi,[rax+0x1]
    5db5:	e8 c6 c2 ff ff       	call   2080 <_ZdlPvm@plt>
    5dba:	48 8d 35 03 23 00 00 	lea    rsi,[rip+0x2303]        # 80c4 <_IO_stdin_used+0xc4>
    5dc1:	ba 09 00 00 00       	mov    edx,0x9
    5dc6:	48 8d 3d 73 42 00 00 	lea    rdi,[rip+0x4273]        # a040 <_ZSt4cout@GLIBCXX_3.4>
    5dcd:	e8 ce c2 ff ff       	call   20a0 <_ZSt16__ostream_insertIcSt11char_traitsIcEERSt13basic_ostreamIT_T0_ES6_PKS3_l@plt>
    5dd2:	4c 8b 74 24 08       	mov    r14,QWORD PTR [rsp+0x8]
    5dd7:	4c 89 f7             	mov    rdi,r14
    5dda:	e8 71 c2 ff ff       	call   2050 <_ZNSt8ios_baseC2Ev@plt>
    5ddf:	66 0f ef c0          	pxor   xmm0,xmm0
    5de3:	45 31 c0             	xor    r8d,r8d
    5de6:	31 f6                	xor    esi,esi
    5de8:	48 8d 05 b9 3d 00 00 	lea    rax,[rip+0x3db9]        # 9ba8 <_ZTVSt9basic_iosIcSt11char_traitsIcEE@GLIBCXX_3.4+0x10>
    5def:	0f 11 84 24 88 02 00 	movups XMMWORD PTR [rsp+0x288],xmm0
    5df6:	00 
    5df7:	48 89 84 24 a0 01 00 	mov    QWORD PTR [rsp+0x1a0],rax
    5dfe:	00 
    5dff:	66 44 89 84 24 80 02 	mov    WORD PTR [rsp+0x280],r8w
    5e06:	00 00 
    5e08:	0f 11 84 24 98 02 00 	movups XMMWORD PTR [rsp+0x298],xmm0
    5e0f:	00 
    5e10:	49 8b 47 e8          	mov    rax,QWORD PTR [r15-0x18]
    5e14:	48 c7 84 24 78 02 00 	mov    QWORD PTR [rsp+0x278],0x0
    5e1b:	00 00 00 00 00 
    5e20:	48 01 d8             	add    rax,rbx
    5e23:	4c 89 bc 24 30 01 00 	mov    QWORD PTR [rsp+0x130],r15
    5e2a:	00 
    5e2b:	48 89 c7             	mov    rdi,rax
    5e2e:	48 8b 05 63 3e 00 00 	mov    rax,QWORD PTR [rip+0x3e63]        # 9c98 <_ZTTNSt7__cxx1119basic_ostringstreamIcSt11char_traitsIcESaIcEEE@GLIBCXX_3.4.21+0x10>
    5e35:	48 89 07             	mov    QWORD PTR [rdi],rax
    5e38:	e8 83 c2 ff ff       	call   20c0 <_ZNSt9basic_iosIcSt11char_traitsIcEE4initEPSt15basic_streambufIcS1_E@plt>
    5e3d:	66 0f 6f 5c 24 30    	movdqa xmm3,XMMWORD PTR [rsp+0x30]
    5e43:	48 8b 7c 24 18       	mov    rdi,QWORD PTR [rsp+0x18]
    5e48:	66 0f ef c0          	pxor   xmm0,xmm0
    5e4c:	48 8d 05 25 3e 00 00 	lea    rax,[rip+0x3e25]        # 9c78 <_ZTVNSt7__cxx1119basic_ostringstreamIcSt11char_traitsIcESaIcEEE@GLIBCXX_3.4.21+0x40>
    5e53:	48 89 84 24 a0 01 00 	mov    QWORD PTR [rsp+0x1a0],rax
    5e5a:	00 
    5e5b:	0f 29 9c 24 30 01 00 	movaps XMMWORD PTR [rsp+0x130],xmm3
    5e62:	00 
    5e63:	0f 29 84 24 40 01 00 	movaps XMMWORD PTR [rsp+0x140],xmm0
    5e6a:	00 
    5e6b:	0f 29 84 24 50 01 00 	movaps XMMWORD PTR [rsp+0x150],xmm0
    5e72:	00 
    5e73:	0f 29 84 24 60 01 00 	movaps XMMWORD PTR [rsp+0x160],xmm0
    5e7a:	00 
    5e7b:	e8 90 c2 ff ff       	call   2110 <_ZNSt6localeC1Ev@plt>
    5e80:	48 8d 05 31 3e 00 00 	lea    rax,[rip+0x3e31]        # 9cb8 <_ZTVNSt7__cxx1115basic_stringbufIcSt11char_traitsIcESaIcEEE@GLIBCXX_3.4.21+0x10>
    5e87:	4c 89 f7             	mov    rdi,r14
    5e8a:	48 8b 74 24 50       	mov    rsi,QWORD PTR [rsp+0x50]
    5e8f:	48 89 84 24 38 01 00 	mov    QWORD PTR [rsp+0x138],rax
    5e96:	00 
    5e97:	48 8b 44 24 10       	mov    rax,QWORD PTR [rsp+0x10]
    5e9c:	c7 84 24 78 01 00 00 	mov    DWORD PTR [rsp+0x178],0x10
    5ea3:	10 00 00 00 
    5ea7:	48 89 84 24 80 01 00 	mov    QWORD PTR [rsp+0x180],rax
    5eae:	00 
    5eaf:	48 c7 84 24 88 01 00 	mov    QWORD PTR [rsp+0x188],0x0
    5eb6:	00 00 00 00 00 
    5ebb:	c6 84 24 90 01 00 00 	mov    BYTE PTR [rsp+0x190],0x0
    5ec2:	00 
    5ec3:	e8 f8 c1 ff ff       	call   20c0 <_ZNSt9basic_iosIcSt11char_traitsIcEE4initEPSt15basic_streambufIcS1_E@plt>
    5ec8:	48 8b 84 24 30 01 00 	mov    rax,QWORD PTR [rsp+0x130]
    5ecf:	00 
    5ed0:	45 31 ed             	xor    r13d,r13d
    5ed3:	4c 8d 35 77 21 00 00 	lea    r14,[rip+0x2177]        # 8051 <_IO_stdin_used+0x51>
    5eda:	48 8b 50 e8          	mov    rdx,QWORD PTR [rax-0x18]
    5ede:	48 01 da             	add    rdx,rbx
    5ee1:	8b 42 18             	mov    eax,DWORD PTR [rdx+0x18]
    5ee4:	48 c7 42 08 06 00 00 	mov    QWORD PTR [rdx+0x8],0x6
    5eeb:	00 
    5eec:	25 fb fe ff ff       	and    eax,0xfffffefb
    5ef1:	83 c8 04             	or     eax,0x4
    5ef4:	89 42 18             	mov    DWORD PTR [rdx+0x18],eax
    5ef7:	4d 63 e5             	movsxd r12,r13d
    5efa:	41 83 fc 04          	cmp    r12d,0x4
    5efe:	74 50                	je     5f50 <_Z16AvxPackedMathF32v+0xe90>
    5f00:	48 8b 84 24 30 01 00 	mov    rax,QWORD PTR [rsp+0x130]
    5f07:	00 
    5f08:	66 0f ef c0          	pxor   xmm0,xmm0
    5f0c:	48 89 df             	mov    rdi,rbx
    5f0f:	f3 42 0f 5a 44 a5 20 	cvtss2sd xmm0,DWORD PTR [rbp+r12*4+0x20]
    5f16:	48 8b 40 e8          	mov    rax,QWORD PTR [rax-0x18]
    5f1a:	48 c7 84 04 40 01 00 	mov    QWORD PTR [rsp+rax*1+0x140],0x10
    5f21:	00 10 00 00 00 
    5f26:	e8 c5 c1 ff ff       	call   20f0 <_ZNSo9_M_insertIdEERSoT_@plt>
    5f2b:	49 83 c4 01          	add    r12,0x1
    5f2f:	45 89 e5             	mov    r13d,r12d
    5f32:	41 83 fc 02          	cmp    r12d,0x2
    5f36:	75 c2                	jne    5efa <_Z16AvxPackedMathF32v+0xe3a>
    5f38:	ba 04 00 00 00       	mov    edx,0x4
    5f3d:	4c 89 f6             	mov    rsi,r14
    5f40:	48 89 df             	mov    rdi,rbx
    5f43:	e8 58 c1 ff ff       	call   20a0 <_ZSt16__ostream_insertIcSt11char_traitsIcEERSt13basic_ostreamIT_T0_ES6_PKS3_l@plt>
    5f48:	eb ad                	jmp    5ef7 <_Z16AvxPackedMathF32v+0xe37>
    5f4a:	66 0f 1f 44 00 00    	nop    WORD PTR [rax+rax*1+0x0]
    5f50:	48 8b 44 24 40       	mov    rax,QWORD PTR [rsp+0x40]
    5f55:	4c 8b 84 24 60 01 00 	mov    r8,QWORD PTR [rsp+0x160]
    5f5c:	00 
    5f5d:	48 c7 84 24 98 00 00 	mov    QWORD PTR [rsp+0x98],0x0
    5f64:	00 00 00 00 00 
    5f69:	c6 84 24 a0 00 00 00 	mov    BYTE PTR [rsp+0xa0],0x0
    5f70:	00 
    5f71:	48 89 84 24 90 00 00 	mov    QWORD PTR [rsp+0x90],rax
    5f78:	00 
    5f79:	4d 85 c0             	test   r8,r8
    5f7c:	0f 84 fe 10 00 00    	je     7080 <_Z16AvxPackedMathF32v+0x1fc0>
    5f82:	48 8b 84 24 50 01 00 	mov    rax,QWORD PTR [rsp+0x150]
    5f89:	00 
    5f8a:	4c 89 c2             	mov    rdx,r8
    5f8d:	48 8b 7c 24 48       	mov    rdi,QWORD PTR [rsp+0x48]
    5f92:	48 8b 8c 24 58 01 00 	mov    rcx,QWORD PTR [rsp+0x158]
    5f99:	00 
    5f9a:	4c 39 c0             	cmp    rax,r8
    5f9d:	4c 0f 43 c0          	cmovae r8,rax
    5fa1:	48 85 c0             	test   rax,rax
    5fa4:	4c 0f 44 c2          	cmove  r8,rdx
    5fa8:	31 d2                	xor    edx,edx
    5faa:	31 f6                	xor    esi,esi
    5fac:	49 29 c8             	sub    r8,rcx
    5faf:	e8 2c c1 ff ff       	call   20e0 <_ZNSt7__cxx1112basic_stringIcSt11char_traitsIcESaIcEE10_M_replaceEmmPKcm@plt>
    5fb4:	48 8d 05 bd 3c 00 00 	lea    rax,[rip+0x3cbd]        # 9c78 <_ZTVNSt7__cxx1119basic_ostringstreamIcSt11char_traitsIcESaIcEEE@GLIBCXX_3.4.21+0x40>
    5fbb:	66 0f 6f 64 24 20    	movdqa xmm4,XMMWORD PTR [rsp+0x20]
    5fc1:	48 8b bc 24 80 01 00 	mov    rdi,QWORD PTR [rsp+0x180]
    5fc8:	00 
    5fc9:	48 89 84 24 a0 01 00 	mov    QWORD PTR [rsp+0x1a0],rax
    5fd0:	00 
    5fd1:	48 8b 44 24 10       	mov    rax,QWORD PTR [rsp+0x10]
    5fd6:	0f 29 a4 24 30 01 00 	movaps XMMWORD PTR [rsp+0x130],xmm4
    5fdd:	00 
    5fde:	48 39 c7             	cmp    rdi,rax
    5fe1:	74 11                	je     5ff4 <_Z16AvxPackedMathF32v+0xf34>
    5fe3:	48 8b 84 24 90 01 00 	mov    rax,QWORD PTR [rsp+0x190]
    5fea:	00 
    5feb:	48 8d 70 01          	lea    rsi,[rax+0x1]
    5fef:	e8 8c c0 ff ff       	call   2080 <_ZdlPvm@plt>
    5ff4:	48 8b 7c 24 18       	mov    rdi,QWORD PTR [rsp+0x18]
    5ff9:	48 8d 05 c8 3b 00 00 	lea    rax,[rip+0x3bc8]        # 9bc8 <_ZTVSt15basic_streambufIcSt11char_traitsIcEE@GLIBCXX_3.4+0x10>
    6000:	48 89 84 24 38 01 00 	mov    QWORD PTR [rsp+0x138],rax
    6007:	00 
    6008:	e8 c3 c0 ff ff       	call   20d0 <_ZNSt6localeD1Ev@plt>
    600d:	49 8b 47 e8          	mov    rax,QWORD PTR [r15-0x18]
    6011:	48 8b 0d 80 3c 00 00 	mov    rcx,QWORD PTR [rip+0x3c80]        # 9c98 <_ZTTNSt7__cxx1119basic_ostringstreamIcSt11char_traitsIcESaIcEEE@GLIBCXX_3.4.21+0x10>
    6018:	4c 89 bc 24 30 01 00 	mov    QWORD PTR [rsp+0x130],r15
    601f:	00 
    6020:	48 8b 7c 24 08       	mov    rdi,QWORD PTR [rsp+0x8]
    6025:	48 89 8c 04 30 01 00 	mov    QWORD PTR [rsp+rax*1+0x130],rcx
    602c:	00 
    602d:	48 8d 05 74 3b 00 00 	lea    rax,[rip+0x3b74]        # 9ba8 <_ZTVSt9basic_iosIcSt11char_traitsIcEE@GLIBCXX_3.4+0x10>
    6034:	48 89 84 24 a0 01 00 	mov    QWORD PTR [rsp+0x1a0],rax
    603b:	00 
    603c:	e8 1f c0 ff ff       	call   2060 <_ZNSt8ios_baseD2Ev@plt>
    6041:	48 8b 94 24 98 00 00 	mov    rdx,QWORD PTR [rsp+0x98]
    6048:	00 
    6049:	48 8b b4 24 90 00 00 	mov    rsi,QWORD PTR [rsp+0x90]
    6050:	00 
    6051:	48 8d 3d e8 3f 00 00 	lea    rdi,[rip+0x3fe8]        # a040 <_ZSt4cout@GLIBCXX_3.4>
    6058:	e8 43 c0 ff ff       	call   20a0 <_ZSt16__ostream_insertIcSt11char_traitsIcEERSt13basic_ostreamIT_T0_ES6_PKS3_l@plt>
    605d:	c6 44 24 6f 0a       	mov    BYTE PTR [rsp+0x6f],0xa
    6062:	48 89 c7             	mov    rdi,rax
    6065:	48 8b 00             	mov    rax,QWORD PTR [rax]
    6068:	48 8b 40 e8          	mov    rax,QWORD PTR [rax-0x18]
    606c:	48 83 7c 07 10 00    	cmp    QWORD PTR [rdi+rax*1+0x10],0x0
    6072:	0f 84 58 0f 00 00    	je     6fd0 <_Z16AvxPackedMathF32v+0x1f10>
    6078:	48 8d 74 24 6f       	lea    rsi,[rsp+0x6f]
    607d:	ba 01 00 00 00       	mov    edx,0x1
    6082:	e8 19 c0 ff ff       	call   20a0 <_ZSt16__ostream_insertIcSt11char_traitsIcEERSt13basic_ostreamIT_T0_ES6_PKS3_l@plt>
    6087:	48 8b bc 24 90 00 00 	mov    rdi,QWORD PTR [rsp+0x90]
    608e:	00 
    608f:	48 8b 44 24 40       	mov    rax,QWORD PTR [rsp+0x40]
    6094:	48 39 c7             	cmp    rdi,rax
    6097:	74 11                	je     60aa <_Z16AvxPackedMathF32v+0xfea>
    6099:	48 8b 84 24 a0 00 00 	mov    rax,QWORD PTR [rsp+0xa0]
    60a0:	00 
    60a1:	48 8d 70 01          	lea    rsi,[rax+0x1]
    60a5:	e8 d6 bf ff ff       	call   2080 <_ZdlPvm@plt>
    60aa:	48 8d 35 1d 20 00 00 	lea    rsi,[rip+0x201d]        # 80ce <_IO_stdin_used+0xce>
    60b1:	ba 09 00 00 00       	mov    edx,0x9
    60b6:	48 8d 3d 83 3f 00 00 	lea    rdi,[rip+0x3f83]        # a040 <_ZSt4cout@GLIBCXX_3.4>
    60bd:	e8 de bf ff ff       	call   20a0 <_ZSt16__ostream_insertIcSt11char_traitsIcEERSt13basic_ostreamIT_T0_ES6_PKS3_l@plt>
    60c2:	4c 8b 74 24 08       	mov    r14,QWORD PTR [rsp+0x8]
    60c7:	4c 89 f7             	mov    rdi,r14
    60ca:	e8 81 bf ff ff       	call   2050 <_ZNSt8ios_baseC2Ev@plt>
    60cf:	48 8d 05 d2 3a 00 00 	lea    rax,[rip+0x3ad2]        # 9ba8 <_ZTVSt9basic_iosIcSt11char_traitsIcEE@GLIBCXX_3.4+0x10>
    60d6:	31 ff                	xor    edi,edi
    60d8:	31 f6                	xor    esi,esi
    60da:	66 0f ef c0          	pxor   xmm0,xmm0
    60de:	66 89 bc 24 80 02 00 	mov    WORD PTR [rsp+0x280],di
    60e5:	00 
    60e6:	48 89 84 24 a0 01 00 	mov    QWORD PTR [rsp+0x1a0],rax
    60ed:	00 
    60ee:	0f 11 84 24 88 02 00 	movups XMMWORD PTR [rsp+0x288],xmm0
    60f5:	00 
    60f6:	0f 11 84 24 98 02 00 	movups XMMWORD PTR [rsp+0x298],xmm0
    60fd:	00 
    60fe:	49 8b 47 e8          	mov    rax,QWORD PTR [r15-0x18]
    6102:	48 c7 84 24 78 02 00 	mov    QWORD PTR [rsp+0x278],0x0
    6109:	00 00 00 00 00 
    610e:	48 01 d8             	add    rax,rbx
    6111:	4c 89 bc 24 30 01 00 	mov    QWORD PTR [rsp+0x130],r15
    6118:	00 
    6119:	48 89 c7             	mov    rdi,rax
    611c:	48 8b 05 75 3b 00 00 	mov    rax,QWORD PTR [rip+0x3b75]        # 9c98 <_ZTTNSt7__cxx1119basic_ostringstreamIcSt11char_traitsIcESaIcEEE@GLIBCXX_3.4.21+0x10>
    6123:	48 89 07             	mov    QWORD PTR [rdi],rax
    6126:	e8 95 bf ff ff       	call   20c0 <_ZNSt9basic_iosIcSt11char_traitsIcEE4initEPSt15basic_streambufIcS1_E@plt>
    612b:	66 0f 6f 6c 24 30    	movdqa xmm5,XMMWORD PTR [rsp+0x30]
    6131:	48 8b 7c 24 18       	mov    rdi,QWORD PTR [rsp+0x18]
    6136:	66 0f ef c0          	pxor   xmm0,xmm0
    613a:	48 8d 05 37 3b 00 00 	lea    rax,[rip+0x3b37]        # 9c78 <_ZTVNSt7__cxx1119basic_ostringstreamIcSt11char_traitsIcESaIcEEE@GLIBCXX_3.4.21+0x40>
    6141:	48 89 84 24 a0 01 00 	mov    QWORD PTR [rsp+0x1a0],rax
    6148:	00 
    6149:	0f 29 ac 24 30 01 00 	movaps XMMWORD PTR [rsp+0x130],xmm5
    6150:	00 
    6151:	0f 29 84 24 40 01 00 	movaps XMMWORD PTR [rsp+0x140],xmm0
    6158:	00 
    6159:	0f 29 84 24 50 01 00 	movaps XMMWORD PTR [rsp+0x150],xmm0
    6160:	00 
    6161:	0f 29 84 24 60 01 00 	movaps XMMWORD PTR [rsp+0x160],xmm0
    6168:	00 
    6169:	e8 a2 bf ff ff       	call   2110 <_ZNSt6localeC1Ev@plt>
    616e:	48 8d 05 43 3b 00 00 	lea    rax,[rip+0x3b43]        # 9cb8 <_ZTVNSt7__cxx1115basic_stringbufIcSt11char_traitsIcESaIcEEE@GLIBCXX_3.4.21+0x10>
    6175:	4c 89 f7             	mov    rdi,r14
    6178:	48 8b 74 24 50       	mov    rsi,QWORD PTR [rsp+0x50]
    617d:	48 89 84 24 38 01 00 	mov    QWORD PTR [rsp+0x138],rax
    6184:	00 
    6185:	48 8b 44 24 10       	mov    rax,QWORD PTR [rsp+0x10]
    618a:	c7 84 24 78 01 00 00 	mov    DWORD PTR [rsp+0x178],0x10
    6191:	10 00 00 00 
    6195:	48 89 84 24 80 01 00 	mov    QWORD PTR [rsp+0x180],rax
    619c:	00 
    619d:	48 c7 84 24 88 01 00 	mov    QWORD PTR [rsp+0x188],0x0
    61a4:	00 00 00 00 00 
    61a9:	c6 84 24 90 01 00 00 	mov    BYTE PTR [rsp+0x190],0x0
    61b0:	00 
    61b1:	e8 0a bf ff ff       	call   20c0 <_ZNSt9basic_iosIcSt11char_traitsIcEE4initEPSt15basic_streambufIcS1_E@plt>
    61b6:	48 8b 84 24 30 01 00 	mov    rax,QWORD PTR [rsp+0x130]
    61bd:	00 
    61be:	45 31 ed             	xor    r13d,r13d
    61c1:	4c 8d 35 89 1e 00 00 	lea    r14,[rip+0x1e89]        # 8051 <_IO_stdin_used+0x51>
    61c8:	48 8b 50 e8          	mov    rdx,QWORD PTR [rax-0x18]
    61cc:	48 01 da             	add    rdx,rbx
    61cf:	8b 42 18             	mov    eax,DWORD PTR [rdx+0x18]
    61d2:	48 c7 42 08 06 00 00 	mov    QWORD PTR [rdx+0x8],0x6
    61d9:	00 
    61da:	25 fb fe ff ff       	and    eax,0xfffffefb
    61df:	83 c8 04             	or     eax,0x4
    61e2:	89 42 18             	mov    DWORD PTR [rdx+0x18],eax
    61e5:	4d 63 e5             	movsxd r12,r13d
    61e8:	41 83 fc 04          	cmp    r12d,0x4
    61ec:	74 52                	je     6240 <_Z16AvxPackedMathF32v+0x1180>
    61ee:	48 8b 84 24 30 01 00 	mov    rax,QWORD PTR [rsp+0x130]
    61f5:	00 
    61f6:	66 0f ef c0          	pxor   xmm0,xmm0
    61fa:	48 89 df             	mov    rdi,rbx
    61fd:	f3 42 0f 5a 44 a5 30 	cvtss2sd xmm0,DWORD PTR [rbp+r12*4+0x30]
    6204:	48 8b 40 e8          	mov    rax,QWORD PTR [rax-0x18]
    6208:	48 c7 84 04 40 01 00 	mov    QWORD PTR [rsp+rax*1+0x140],0x10
    620f:	00 10 00 00 00 
    6214:	e8 d7 be ff ff       	call   20f0 <_ZNSo9_M_insertIdEERSoT_@plt>
    6219:	49 83 c4 01          	add    r12,0x1
    621d:	45 89 e5             	mov    r13d,r12d
    6220:	41 83 fc 02          	cmp    r12d,0x2
    6224:	75 c2                	jne    61e8 <_Z16AvxPackedMathF32v+0x1128>
    6226:	ba 04 00 00 00       	mov    edx,0x4
    622b:	4c 89 f6             	mov    rsi,r14
    622e:	48 89 df             	mov    rdi,rbx
    6231:	e8 6a be ff ff       	call   20a0 <_ZSt16__ostream_insertIcSt11char_traitsIcEERSt13basic_ostreamIT_T0_ES6_PKS3_l@plt>
    6236:	eb ad                	jmp    61e5 <_Z16AvxPackedMathF32v+0x1125>
    6238:	0f 1f 84 00 00 00 00 	nop    DWORD PTR [rax+rax*1+0x0]
    623f:	00 
    6240:	48 8b 44 24 40       	mov    rax,QWORD PTR [rsp+0x40]
    6245:	4c 8b 84 24 60 01 00 	mov    r8,QWORD PTR [rsp+0x160]
    624c:	00 
    624d:	48 c7 84 24 98 00 00 	mov    QWORD PTR [rsp+0x98],0x0
    6254:	00 00 00 00 00 
    6259:	c6 84 24 a0 00 00 00 	mov    BYTE PTR [rsp+0xa0],0x0
    6260:	00 
    6261:	48 89 84 24 90 00 00 	mov    QWORD PTR [rsp+0x90],rax
    6268:	00 
    6269:	4d 85 c0             	test   r8,r8
    626c:	0f 84 ee 0d 00 00    	je     7060 <_Z16AvxPackedMathF32v+0x1fa0>
    6272:	48 8b 84 24 50 01 00 	mov    rax,QWORD PTR [rsp+0x150]
    6279:	00 
    627a:	4c 89 c2             	mov    rdx,r8
    627d:	48 8b 7c 24 48       	mov    rdi,QWORD PTR [rsp+0x48]
    6282:	48 8b 8c 24 58 01 00 	mov    rcx,QWORD PTR [rsp+0x158]
    6289:	00 
    628a:	4c 39 c0             	cmp    rax,r8
    628d:	4c 0f 43 c0          	cmovae r8,rax
    6291:	48 85 c0             	test   rax,rax
    6294:	4c 0f 44 c2          	cmove  r8,rdx
    6298:	31 d2                	xor    edx,edx
    629a:	31 f6                	xor    esi,esi
    629c:	49 29 c8             	sub    r8,rcx
    629f:	e8 3c be ff ff       	call   20e0 <_ZNSt7__cxx1112basic_stringIcSt11char_traitsIcESaIcEE10_M_replaceEmmPKcm@plt>
    62a4:	48 8d 05 cd 39 00 00 	lea    rax,[rip+0x39cd]        # 9c78 <_ZTVNSt7__cxx1119basic_ostringstreamIcSt11char_traitsIcESaIcEEE@GLIBCXX_3.4.21+0x40>
    62ab:	66 0f 6f 74 24 20    	movdqa xmm6,XMMWORD PTR [rsp+0x20]
    62b1:	48 8b bc 24 80 01 00 	mov    rdi,QWORD PTR [rsp+0x180]
    62b8:	00 
    62b9:	48 89 84 24 a0 01 00 	mov    QWORD PTR [rsp+0x1a0],rax
    62c0:	00 
    62c1:	48 8b 44 24 10       	mov    rax,QWORD PTR [rsp+0x10]
    62c6:	0f 29 b4 24 30 01 00 	movaps XMMWORD PTR [rsp+0x130],xmm6
    62cd:	00 
    62ce:	48 39 c7             	cmp    rdi,rax
    62d1:	74 11                	je     62e4 <_Z16AvxPackedMathF32v+0x1224>
    62d3:	48 8b 84 24 90 01 00 	mov    rax,QWORD PTR [rsp+0x190]
    62da:	00 
    62db:	48 8d 70 01          	lea    rsi,[rax+0x1]
    62df:	e8 9c bd ff ff       	call   2080 <_ZdlPvm@plt>
    62e4:	48 8b 7c 24 18       	mov    rdi,QWORD PTR [rsp+0x18]
    62e9:	48 8d 05 d8 38 00 00 	lea    rax,[rip+0x38d8]        # 9bc8 <_ZTVSt15basic_streambufIcSt11char_traitsIcEE@GLIBCXX_3.4+0x10>
    62f0:	48 89 84 24 38 01 00 	mov    QWORD PTR [rsp+0x138],rax
    62f7:	00 
    62f8:	e8 d3 bd ff ff       	call   20d0 <_ZNSt6localeD1Ev@plt>
    62fd:	49 8b 47 e8          	mov    rax,QWORD PTR [r15-0x18]
    6301:	48 8b 0d 90 39 00 00 	mov    rcx,QWORD PTR [rip+0x3990]        # 9c98 <_ZTTNSt7__cxx1119basic_ostringstreamIcSt11char_traitsIcESaIcEEE@GLIBCXX_3.4.21+0x10>
    6308:	4c 89 bc 24 30 01 00 	mov    QWORD PTR [rsp+0x130],r15
    630f:	00 
    6310:	48 8b 7c 24 08       	mov    rdi,QWORD PTR [rsp+0x8]
    6315:	48 89 8c 04 30 01 00 	mov    QWORD PTR [rsp+rax*1+0x130],rcx
    631c:	00 
    631d:	48 8d 05 84 38 00 00 	lea    rax,[rip+0x3884]        # 9ba8 <_ZTVSt9basic_iosIcSt11char_traitsIcEE@GLIBCXX_3.4+0x10>
    6324:	48 89 84 24 a0 01 00 	mov    QWORD PTR [rsp+0x1a0],rax
    632b:	00 
    632c:	e8 2f bd ff ff       	call   2060 <_ZNSt8ios_baseD2Ev@plt>
    6331:	48 8b 94 24 98 00 00 	mov    rdx,QWORD PTR [rsp+0x98]
    6338:	00 
    6339:	48 8b b4 24 90 00 00 	mov    rsi,QWORD PTR [rsp+0x90]
    6340:	00 
    6341:	48 8d 3d f8 3c 00 00 	lea    rdi,[rip+0x3cf8]        # a040 <_ZSt4cout@GLIBCXX_3.4>
    6348:	e8 53 bd ff ff       	call   20a0 <_ZSt16__ostream_insertIcSt11char_traitsIcEERSt13basic_ostreamIT_T0_ES6_PKS3_l@plt>
    634d:	c6 44 24 6f 0a       	mov    BYTE PTR [rsp+0x6f],0xa
    6352:	48 89 c7             	mov    rdi,rax
    6355:	48 8b 00             	mov    rax,QWORD PTR [rax]
    6358:	48 8b 40 e8          	mov    rax,QWORD PTR [rax-0x18]
    635c:	48 83 7c 07 10 00    	cmp    QWORD PTR [rdi+rax*1+0x10],0x0
    6362:	0f 84 b8 0c 00 00    	je     7020 <_Z16AvxPackedMathF32v+0x1f60>
    6368:	48 8d 74 24 6f       	lea    rsi,[rsp+0x6f]
    636d:	ba 01 00 00 00       	mov    edx,0x1
    6372:	e8 29 bd ff ff       	call   20a0 <_ZSt16__ostream_insertIcSt11char_traitsIcEERSt13basic_ostreamIT_T0_ES6_PKS3_l@plt>
    6377:	48 8b bc 24 90 00 00 	mov    rdi,QWORD PTR [rsp+0x90]
    637e:	00 
    637f:	48 8b 44 24 40       	mov    rax,QWORD PTR [rsp+0x40]
    6384:	48 39 c7             	cmp    rdi,rax
    6387:	74 11                	je     639a <_Z16AvxPackedMathF32v+0x12da>
    6389:	48 8b 84 24 a0 00 00 	mov    rax,QWORD PTR [rsp+0xa0]
    6390:	00 
    6391:	48 8d 70 01          	lea    rsi,[rax+0x1]
    6395:	e8 e6 bc ff ff       	call   2080 <_ZdlPvm@plt>
    639a:	48 8d 35 37 1d 00 00 	lea    rsi,[rip+0x1d37]        # 80d8 <_IO_stdin_used+0xd8>
    63a1:	ba 09 00 00 00       	mov    edx,0x9
    63a6:	48 8d 3d 93 3c 00 00 	lea    rdi,[rip+0x3c93]        # a040 <_ZSt4cout@GLIBCXX_3.4>
    63ad:	e8 ee bc ff ff       	call   20a0 <_ZSt16__ostream_insertIcSt11char_traitsIcEERSt13basic_ostreamIT_T0_ES6_PKS3_l@plt>
    63b2:	4c 8b 74 24 08       	mov    r14,QWORD PTR [rsp+0x8]
    63b7:	4c 89 f7             	mov    rdi,r14
    63ba:	e8 91 bc ff ff       	call   2050 <_ZNSt8ios_baseC2Ev@plt>
    63bf:	48 8d 05 e2 37 00 00 	lea    rax,[rip+0x37e2]        # 9ba8 <_ZTVSt9basic_iosIcSt11char_traitsIcEE@GLIBCXX_3.4+0x10>
    63c6:	31 f6                	xor    esi,esi
    63c8:	66 0f ef c0          	pxor   xmm0,xmm0
    63cc:	66 89 b4 24 80 02 00 	mov    WORD PTR [rsp+0x280],si
    63d3:	00 
    63d4:	31 f6                	xor    esi,esi
    63d6:	48 89 84 24 a0 01 00 	mov    QWORD PTR [rsp+0x1a0],rax
    63dd:	00 
    63de:	0f 11 84 24 88 02 00 	movups XMMWORD PTR [rsp+0x288],xmm0
    63e5:	00 
    63e6:	0f 11 84 24 98 02 00 	movups XMMWORD PTR [rsp+0x298],xmm0
    63ed:	00 
    63ee:	49 8b 47 e8          	mov    rax,QWORD PTR [r15-0x18]
    63f2:	48 c7 84 24 78 02 00 	mov    QWORD PTR [rsp+0x278],0x0
    63f9:	00 00 00 00 00 
    63fe:	48 01 d8             	add    rax,rbx
    6401:	4c 89 bc 24 30 01 00 	mov    QWORD PTR [rsp+0x130],r15
    6408:	00 
    6409:	48 89 c7             	mov    rdi,rax
    640c:	48 8b 05 85 38 00 00 	mov    rax,QWORD PTR [rip+0x3885]        # 9c98 <_ZTTNSt7__cxx1119basic_ostringstreamIcSt11char_traitsIcESaIcEEE@GLIBCXX_3.4.21+0x10>
    6413:	48 89 07             	mov    QWORD PTR [rdi],rax
    6416:	e8 a5 bc ff ff       	call   20c0 <_ZNSt9basic_iosIcSt11char_traitsIcEE4initEPSt15basic_streambufIcS1_E@plt>
    641b:	66 0f 6f 7c 24 30    	movdqa xmm7,XMMWORD PTR [rsp+0x30]
    6421:	48 8b 7c 24 18       	mov    rdi,QWORD PTR [rsp+0x18]
    6426:	66 0f ef c0          	pxor   xmm0,xmm0
    642a:	48 8d 05 47 38 00 00 	lea    rax,[rip+0x3847]        # 9c78 <_ZTVNSt7__cxx1119basic_ostringstreamIcSt11char_traitsIcESaIcEEE@GLIBCXX_3.4.21+0x40>
    6431:	48 89 84 24 a0 01 00 	mov    QWORD PTR [rsp+0x1a0],rax
    6438:	00 
    6439:	0f 29 bc 24 30 01 00 	movaps XMMWORD PTR [rsp+0x130],xmm7
    6440:	00 
    6441:	0f 29 84 24 40 01 00 	movaps XMMWORD PTR [rsp+0x140],xmm0
    6448:	00 
    6449:	0f 29 84 24 50 01 00 	movaps XMMWORD PTR [rsp+0x150],xmm0
    6450:	00 
    6451:	0f 29 84 24 60 01 00 	movaps XMMWORD PTR [rsp+0x160],xmm0
    6458:	00 
    6459:	e8 b2 bc ff ff       	call   2110 <_ZNSt6localeC1Ev@plt>
    645e:	48 8d 05 53 38 00 00 	lea    rax,[rip+0x3853]        # 9cb8 <_ZTVNSt7__cxx1115basic_stringbufIcSt11char_traitsIcESaIcEEE@GLIBCXX_3.4.21+0x10>
    6465:	4c 89 f7             	mov    rdi,r14
    6468:	48 8b 74 24 50       	mov    rsi,QWORD PTR [rsp+0x50]
    646d:	48 89 84 24 38 01 00 	mov    QWORD PTR [rsp+0x138],rax
    6474:	00 
    6475:	48 8b 44 24 10       	mov    rax,QWORD PTR [rsp+0x10]
    647a:	c7 84 24 78 01 00 00 	mov    DWORD PTR [rsp+0x178],0x10
    6481:	10 00 00 00 
    6485:	48 89 84 24 80 01 00 	mov    QWORD PTR [rsp+0x180],rax
    648c:	00 
    648d:	48 c7 84 24 88 01 00 	mov    QWORD PTR [rsp+0x188],0x0
    6494:	00 00 00 00 00 
    6499:	c6 84 24 90 01 00 00 	mov    BYTE PTR [rsp+0x190],0x0
    64a0:	00 
    64a1:	e8 1a bc ff ff       	call   20c0 <_ZNSt9basic_iosIcSt11char_traitsIcEE4initEPSt15basic_streambufIcS1_E@plt>
    64a6:	48 8b 84 24 30 01 00 	mov    rax,QWORD PTR [rsp+0x130]
    64ad:	00 
    64ae:	45 31 ed             	xor    r13d,r13d
    64b1:	4c 8d 35 99 1b 00 00 	lea    r14,[rip+0x1b99]        # 8051 <_IO_stdin_used+0x51>
    64b8:	48 8b 50 e8          	mov    rdx,QWORD PTR [rax-0x18]
    64bc:	48 01 da             	add    rdx,rbx
    64bf:	8b 42 18             	mov    eax,DWORD PTR [rdx+0x18]
    64c2:	48 c7 42 08 06 00 00 	mov    QWORD PTR [rdx+0x8],0x6
    64c9:	00 
    64ca:	25 fb fe ff ff       	and    eax,0xfffffefb
    64cf:	83 c8 04             	or     eax,0x4
    64d2:	89 42 18             	mov    DWORD PTR [rdx+0x18],eax
    64d5:	4d 63 e5             	movsxd r12,r13d
    64d8:	41 83 fc 04          	cmp    r12d,0x4
    64dc:	74 52                	je     6530 <_Z16AvxPackedMathF32v+0x1470>
    64de:	48 8b 84 24 30 01 00 	mov    rax,QWORD PTR [rsp+0x130]
    64e5:	00 
    64e6:	66 0f ef c0          	pxor   xmm0,xmm0
    64ea:	48 89 df             	mov    rdi,rbx
    64ed:	f3 42 0f 5a 44 a5 40 	cvtss2sd xmm0,DWORD PTR [rbp+r12*4+0x40]
    64f4:	48 8b 40 e8          	mov    rax,QWORD PTR [rax-0x18]
    64f8:	48 c7 84 04 40 01 00 	mov    QWORD PTR [rsp+rax*1+0x140],0x10
    64ff:	00 10 00 00 00 
    6504:	e8 e7 bb ff ff       	call   20f0 <_ZNSo9_M_insertIdEERSoT_@plt>
    6509:	49 83 c4 01          	add    r12,0x1
    650d:	45 89 e5             	mov    r13d,r12d
    6510:	41 83 fc 02          	cmp    r12d,0x2
    6514:	75 c2                	jne    64d8 <_Z16AvxPackedMathF32v+0x1418>
    6516:	ba 04 00 00 00       	mov    edx,0x4
    651b:	4c 89 f6             	mov    rsi,r14
    651e:	48 89 df             	mov    rdi,rbx
    6521:	e8 7a bb ff ff       	call   20a0 <_ZSt16__ostream_insertIcSt11char_traitsIcEERSt13basic_ostreamIT_T0_ES6_PKS3_l@plt>
    6526:	eb ad                	jmp    64d5 <_Z16AvxPackedMathF32v+0x1415>
    6528:	0f 1f 84 00 00 00 00 	nop    DWORD PTR [rax+rax*1+0x0]
    652f:	00 
    6530:	48 8b 44 24 40       	mov    rax,QWORD PTR [rsp+0x40]
    6535:	4c 8b 84 24 60 01 00 	mov    r8,QWORD PTR [rsp+0x160]
    653c:	00 
    653d:	48 c7 84 24 98 00 00 	mov    QWORD PTR [rsp+0x98],0x0
    6544:	00 00 00 00 00 
    6549:	c6 84 24 a0 00 00 00 	mov    BYTE PTR [rsp+0xa0],0x0
    6550:	00 
    6551:	48 89 84 24 90 00 00 	mov    QWORD PTR [rsp+0x90],rax
    6558:	00 
    6559:	4d 85 c0             	test   r8,r8
    655c:	0f 84 5e 0b 00 00    	je     70c0 <_Z16AvxPackedMathF32v+0x2000>
    6562:	48 8b 84 24 50 01 00 	mov    rax,QWORD PTR [rsp+0x150]
    6569:	00 
    656a:	4c 89 c2             	mov    rdx,r8
    656d:	48 8b 7c 24 48       	mov    rdi,QWORD PTR [rsp+0x48]
    6572:	48 8b 8c 24 58 01 00 	mov    rcx,QWORD PTR [rsp+0x158]
    6579:	00 
    657a:	4c 39 c0             	cmp    rax,r8
    657d:	4c 0f 43 c0          	cmovae r8,rax
    6581:	48 85 c0             	test   rax,rax
    6584:	4c 0f 44 c2          	cmove  r8,rdx
    6588:	31 d2                	xor    edx,edx
    658a:	31 f6                	xor    esi,esi
    658c:	49 29 c8             	sub    r8,rcx
    658f:	e8 4c bb ff ff       	call   20e0 <_ZNSt7__cxx1112basic_stringIcSt11char_traitsIcESaIcEE10_M_replaceEmmPKcm@plt>
    6594:	48 8d 05 dd 36 00 00 	lea    rax,[rip+0x36dd]        # 9c78 <_ZTVNSt7__cxx1119basic_ostringstreamIcSt11char_traitsIcESaIcEEE@GLIBCXX_3.4.21+0x40>
    659b:	66 0f 6f 5c 24 20    	movdqa xmm3,XMMWORD PTR [rsp+0x20]
    65a1:	48 8b bc 24 80 01 00 	mov    rdi,QWORD PTR [rsp+0x180]
    65a8:	00 
    65a9:	48 89 84 24 a0 01 00 	mov    QWORD PTR [rsp+0x1a0],rax
    65b0:	00 
    65b1:	48 8b 44 24 10       	mov    rax,QWORD PTR [rsp+0x10]
    65b6:	0f 29 9c 24 30 01 00 	movaps XMMWORD PTR [rsp+0x130],xmm3
    65bd:	00 
    65be:	48 39 c7             	cmp    rdi,rax
    65c1:	74 11                	je     65d4 <_Z16AvxPackedMathF32v+0x1514>
    65c3:	48 8b 84 24 90 01 00 	mov    rax,QWORD PTR [rsp+0x190]
    65ca:	00 
    65cb:	48 8d 70 01          	lea    rsi,[rax+0x1]
    65cf:	e8 ac ba ff ff       	call   2080 <_ZdlPvm@plt>
    65d4:	48 8b 7c 24 18       	mov    rdi,QWORD PTR [rsp+0x18]
    65d9:	48 8d 05 e8 35 00 00 	lea    rax,[rip+0x35e8]        # 9bc8 <_ZTVSt15basic_streambufIcSt11char_traitsIcEE@GLIBCXX_3.4+0x10>
    65e0:	48 89 84 24 38 01 00 	mov    QWORD PTR [rsp+0x138],rax
    65e7:	00 
    65e8:	e8 e3 ba ff ff       	call   20d0 <_ZNSt6localeD1Ev@plt>
    65ed:	49 8b 47 e8          	mov    rax,QWORD PTR [r15-0x18]
    65f1:	48 8b 0d a0 36 00 00 	mov    rcx,QWORD PTR [rip+0x36a0]        # 9c98 <_ZTTNSt7__cxx1119basic_ostringstreamIcSt11char_traitsIcESaIcEEE@GLIBCXX_3.4.21+0x10>
    65f8:	4c 89 bc 24 30 01 00 	mov    QWORD PTR [rsp+0x130],r15
    65ff:	00 
    6600:	48 8b 7c 24 08       	mov    rdi,QWORD PTR [rsp+0x8]
    6605:	48 89 8c 04 30 01 00 	mov    QWORD PTR [rsp+rax*1+0x130],rcx
    660c:	00 
    660d:	48 8d 05 94 35 00 00 	lea    rax,[rip+0x3594]        # 9ba8 <_ZTVSt9basic_iosIcSt11char_traitsIcEE@GLIBCXX_3.4+0x10>
    6614:	48 89 84 24 a0 01 00 	mov    QWORD PTR [rsp+0x1a0],rax
    661b:	00 
    661c:	e8 3f ba ff ff       	call   2060 <_ZNSt8ios_baseD2Ev@plt>
    6621:	48 8b 94 24 98 00 00 	mov    rdx,QWORD PTR [rsp+0x98]
    6628:	00 
    6629:	48 8b b4 24 90 00 00 	mov    rsi,QWORD PTR [rsp+0x90]
    6630:	00 
    6631:	48 8d 3d 08 3a 00 00 	lea    rdi,[rip+0x3a08]        # a040 <_ZSt4cout@GLIBCXX_3.4>
    6638:	e8 63 ba ff ff       	call   20a0 <_ZSt16__ostream_insertIcSt11char_traitsIcEERSt13basic_ostreamIT_T0_ES6_PKS3_l@plt>
    663d:	c6 44 24 6f 0a       	mov    BYTE PTR [rsp+0x6f],0xa
    6642:	48 89 c7             	mov    rdi,rax
    6645:	48 8b 00             	mov    rax,QWORD PTR [rax]
    6648:	48 8b 40 e8          	mov    rax,QWORD PTR [rax-0x18]
    664c:	48 83 7c 07 10 00    	cmp    QWORD PTR [rdi+rax*1+0x10],0x0
    6652:	0f 84 b8 09 00 00    	je     7010 <_Z16AvxPackedMathF32v+0x1f50>
    6658:	48 8d 74 24 6f       	lea    rsi,[rsp+0x6f]
    665d:	ba 01 00 00 00       	mov    edx,0x1
    6662:	e8 39 ba ff ff       	call   20a0 <_ZSt16__ostream_insertIcSt11char_traitsIcEERSt13basic_ostreamIT_T0_ES6_PKS3_l@plt>
    6667:	48 8b bc 24 90 00 00 	mov    rdi,QWORD PTR [rsp+0x90]
    666e:	00 
    666f:	48 8b 44 24 40       	mov    rax,QWORD PTR [rsp+0x40]
    6674:	48 39 c7             	cmp    rdi,rax
    6677:	74 11                	je     668a <_Z16AvxPackedMathF32v+0x15ca>
    6679:	48 8b 84 24 a0 00 00 	mov    rax,QWORD PTR [rsp+0xa0]
    6680:	00 
    6681:	48 8d 70 01          	lea    rsi,[rax+0x1]
    6685:	e8 f6 b9 ff ff       	call   2080 <_ZdlPvm@plt>
    668a:	48 8d 35 51 1a 00 00 	lea    rsi,[rip+0x1a51]        # 80e2 <_IO_stdin_used+0xe2>
    6691:	ba 09 00 00 00       	mov    edx,0x9
    6696:	48 8d 3d a3 39 00 00 	lea    rdi,[rip+0x39a3]        # a040 <_ZSt4cout@GLIBCXX_3.4>
    669d:	e8 fe b9 ff ff       	call   20a0 <_ZSt16__ostream_insertIcSt11char_traitsIcEERSt13basic_ostreamIT_T0_ES6_PKS3_l@plt>
    66a2:	4c 8b 74 24 08       	mov    r14,QWORD PTR [rsp+0x8]
    66a7:	4c 89 f7             	mov    rdi,r14
    66aa:	e8 a1 b9 ff ff       	call   2050 <_ZNSt8ios_baseC2Ev@plt>
    66af:	48 8d 05 f2 34 00 00 	lea    rax,[rip+0x34f2]        # 9ba8 <_ZTVSt9basic_iosIcSt11char_traitsIcEE@GLIBCXX_3.4+0x10>
    66b6:	31 c9                	xor    ecx,ecx
    66b8:	31 f6                	xor    esi,esi
    66ba:	66 0f ef c0          	pxor   xmm0,xmm0
    66be:	48 89 84 24 a0 01 00 	mov    QWORD PTR [rsp+0x1a0],rax
    66c5:	00 
    66c6:	66 89 8c 24 80 02 00 	mov    WORD PTR [rsp+0x280],cx
    66cd:	00 
    66ce:	0f 11 84 24 88 02 00 	movups XMMWORD PTR [rsp+0x288],xmm0
    66d5:	00 
    66d6:	0f 11 84 24 98 02 00 	movups XMMWORD PTR [rsp+0x298],xmm0
    66dd:	00 
    66de:	49 8b 47 e8          	mov    rax,QWORD PTR [r15-0x18]
    66e2:	48 c7 84 24 78 02 00 	mov    QWORD PTR [rsp+0x278],0x0
    66e9:	00 00 00 00 00 
    66ee:	48 01 d8             	add    rax,rbx
    66f1:	4c 89 bc 24 30 01 00 	mov    QWORD PTR [rsp+0x130],r15
    66f8:	00 
    66f9:	48 89 c7             	mov    rdi,rax
    66fc:	48 8b 05 95 35 00 00 	mov    rax,QWORD PTR [rip+0x3595]        # 9c98 <_ZTTNSt7__cxx1119basic_ostringstreamIcSt11char_traitsIcESaIcEEE@GLIBCXX_3.4.21+0x10>
    6703:	48 89 07             	mov    QWORD PTR [rdi],rax
    6706:	e8 b5 b9 ff ff       	call   20c0 <_ZNSt9basic_iosIcSt11char_traitsIcEE4initEPSt15basic_streambufIcS1_E@plt>
    670b:	66 0f 6f 64 24 30    	movdqa xmm4,XMMWORD PTR [rsp+0x30]
    6711:	48 8b 7c 24 18       	mov    rdi,QWORD PTR [rsp+0x18]
    6716:	66 0f ef c0          	pxor   xmm0,xmm0
    671a:	48 8d 05 57 35 00 00 	lea    rax,[rip+0x3557]        # 9c78 <_ZTVNSt7__cxx1119basic_ostringstreamIcSt11char_traitsIcESaIcEEE@GLIBCXX_3.4.21+0x40>
    6721:	48 89 84 24 a0 01 00 	mov    QWORD PTR [rsp+0x1a0],rax
    6728:	00 
    6729:	0f 29 a4 24 30 01 00 	movaps XMMWORD PTR [rsp+0x130],xmm4
    6730:	00 
    6731:	0f 29 84 24 40 01 00 	movaps XMMWORD PTR [rsp+0x140],xmm0
    6738:	00 
    6739:	0f 29 84 24 50 01 00 	movaps XMMWORD PTR [rsp+0x150],xmm0
    6740:	00 
    6741:	0f 29 84 24 60 01 00 	movaps XMMWORD PTR [rsp+0x160],xmm0
    6748:	00 
    6749:	e8 c2 b9 ff ff       	call   2110 <_ZNSt6localeC1Ev@plt>
    674e:	48 8d 05 63 35 00 00 	lea    rax,[rip+0x3563]        # 9cb8 <_ZTVNSt7__cxx1115basic_stringbufIcSt11char_traitsIcESaIcEEE@GLIBCXX_3.4.21+0x10>
    6755:	4c 89 f7             	mov    rdi,r14
    6758:	48 8b 74 24 50       	mov    rsi,QWORD PTR [rsp+0x50]
    675d:	48 89 84 24 38 01 00 	mov    QWORD PTR [rsp+0x138],rax
    6764:	00 
    6765:	48 8b 44 24 10       	mov    rax,QWORD PTR [rsp+0x10]
    676a:	c7 84 24 78 01 00 00 	mov    DWORD PTR [rsp+0x178],0x10
    6771:	10 00 00 00 
    6775:	48 89 84 24 80 01 00 	mov    QWORD PTR [rsp+0x180],rax
    677c:	00 
    677d:	48 c7 84 24 88 01 00 	mov    QWORD PTR [rsp+0x188],0x0
    6784:	00 00 00 00 00 
    6789:	c6 84 24 90 01 00 00 	mov    BYTE PTR [rsp+0x190],0x0
    6790:	00 
    6791:	e8 2a b9 ff ff       	call   20c0 <_ZNSt9basic_iosIcSt11char_traitsIcEE4initEPSt15basic_streambufIcS1_E@plt>
    6796:	48 8b 84 24 30 01 00 	mov    rax,QWORD PTR [rsp+0x130]
    679d:	00 
    679e:	45 31 ed             	xor    r13d,r13d
    67a1:	4c 8d 35 a9 18 00 00 	lea    r14,[rip+0x18a9]        # 8051 <_IO_stdin_used+0x51>
    67a8:	48 8b 50 e8          	mov    rdx,QWORD PTR [rax-0x18]
    67ac:	48 01 da             	add    rdx,rbx
    67af:	8b 42 18             	mov    eax,DWORD PTR [rdx+0x18]
    67b2:	48 c7 42 08 06 00 00 	mov    QWORD PTR [rdx+0x8],0x6
    67b9:	00 
    67ba:	25 fb fe ff ff       	and    eax,0xfffffefb
    67bf:	83 c8 04             	or     eax,0x4
    67c2:	89 42 18             	mov    DWORD PTR [rdx+0x18],eax
    67c5:	4d 63 e5             	movsxd r12,r13d
    67c8:	41 83 fc 04          	cmp    r12d,0x4
    67cc:	74 52                	je     6820 <_Z16AvxPackedMathF32v+0x1760>
    67ce:	48 8b 84 24 30 01 00 	mov    rax,QWORD PTR [rsp+0x130]
    67d5:	00 
    67d6:	66 0f ef c0          	pxor   xmm0,xmm0
    67da:	48 89 df             	mov    rdi,rbx
    67dd:	f3 42 0f 5a 44 a5 50 	cvtss2sd xmm0,DWORD PTR [rbp+r12*4+0x50]
    67e4:	48 8b 40 e8          	mov    rax,QWORD PTR [rax-0x18]
    67e8:	48 c7 84 04 40 01 00 	mov    QWORD PTR [rsp+rax*1+0x140],0x10
    67ef:	00 10 00 00 00 
    67f4:	e8 f7 b8 ff ff       	call   20f0 <_ZNSo9_M_insertIdEERSoT_@plt>
    67f9:	49 83 c4 01          	add    r12,0x1
    67fd:	45 89 e5             	mov    r13d,r12d
    6800:	41 83 fc 02          	cmp    r12d,0x2
    6804:	75 c2                	jne    67c8 <_Z16AvxPackedMathF32v+0x1708>
    6806:	ba 04 00 00 00       	mov    edx,0x4
    680b:	4c 89 f6             	mov    rsi,r14
    680e:	48 89 df             	mov    rdi,rbx
    6811:	e8 8a b8 ff ff       	call   20a0 <_ZSt16__ostream_insertIcSt11char_traitsIcEERSt13basic_ostreamIT_T0_ES6_PKS3_l@plt>
    6816:	eb ad                	jmp    67c5 <_Z16AvxPackedMathF32v+0x1705>
    6818:	0f 1f 84 00 00 00 00 	nop    DWORD PTR [rax+rax*1+0x0]
    681f:	00 
    6820:	48 8b 44 24 40       	mov    rax,QWORD PTR [rsp+0x40]
    6825:	4c 8b 84 24 60 01 00 	mov    r8,QWORD PTR [rsp+0x160]
    682c:	00 
    682d:	48 c7 84 24 98 00 00 	mov    QWORD PTR [rsp+0x98],0x0
    6834:	00 00 00 00 00 
    6839:	c6 84 24 a0 00 00 00 	mov    BYTE PTR [rsp+0xa0],0x0
    6840:	00 
    6841:	48 89 84 24 90 00 00 	mov    QWORD PTR [rsp+0x90],rax
    6848:	00 
    6849:	4d 85 c0             	test   r8,r8
    684c:	0f 84 4e 08 00 00    	je     70a0 <_Z16AvxPackedMathF32v+0x1fe0>
    6852:	48 8b 84 24 50 01 00 	mov    rax,QWORD PTR [rsp+0x150]
    6859:	00 
    685a:	4c 89 c2             	mov    rdx,r8
    685d:	48 8b 7c 24 48       	mov    rdi,QWORD PTR [rsp+0x48]
    6862:	48 8b 8c 24 58 01 00 	mov    rcx,QWORD PTR [rsp+0x158]
    6869:	00 
    686a:	4c 39 c0             	cmp    rax,r8
    686d:	4c 0f 43 c0          	cmovae r8,rax
    6871:	48 85 c0             	test   rax,rax
    6874:	4c 0f 44 c2          	cmove  r8,rdx
    6878:	31 d2                	xor    edx,edx
    687a:	31 f6                	xor    esi,esi
    687c:	49 29 c8             	sub    r8,rcx
